(lp0
(lp1
I0
aI1
aI3
aI6
aI7
aI8
aI9
aI10
aI11
aI12
aI13
aI14
aI15
aI16
aI17
aI18
aI19
aI20
aI21
aI22
aI24
aI25
aI26
aI28
aI29
aI31
aI32
aI33
aI34
aI35
aI37
aI42
aI43
aI44
aI46
aI47
aI48
aI51
aI55
aI57
aI59
aI61
aI63
aI64
aI66
aI67
aI68
aI71
aI72
aI74
aI75
aI76
aI77
aI78
aI80
aI81
aI82
aI83
aI84
aI85
aI88
aI91
aI92
aI93
aI94
aI95
aI96
aI99
aI100
aI101
aI104
aI105
aI107
aI108
aI109
aI110
aI112
aI114
aI116
aI117
aI118
aI120
aI121
aI123
aI126
aI127
aI128
aI129
aI131
aI132
aI133
aI135
aI136
aI137
aI138
aI140
aI141
aI143
aI145
aI146
aI151
aI152
aI154
aI156
aI158
aI162
aI163
aI165
aI167
aI168
aI170
aI171
aI173
aI174
aI175
aI176
aI177
aI179
aI180
aI181
aI183
aI185
aI187
aI188
aI190
aI191
aI192
aI197
aI198
aI199
aI200
aI201
aI202
aI203
aI204
aI205
aI208
aI209
aI210
aI211
aI214
aI216
aI217
aI218
aI220
aI221
aI222
aI225
aI228
aI229
aI233
aI234
aI235
aI236
aI238
aI239
aI240
aI241
aI242
aI247
aI248
aI249
aI250
aI251
aI252
aI254
aI255
aI256
aI258
aI260
aI261
aI262
aI267
aI270
aI271
aI275
aI278
aI280
aI281
aI283
aI289
aI291
aI292
aI293
aI294
aI295
aI296
aI297
aI299
aI300
aI305
aI307
aI309
aI311
aI312
aI313
aI314
aI316
aI318
aI319
aI320
aI321
aI322
aI323
aI325
aI326
aI327
aI328
aI329
aI334
aI335
aI336
aI337
aI341
aI342
aI345
aI346
aI348
aI349
aI350
aI351
aI352
aI354
aI355
aI357
aI358
aI359
aI360
aI361
aI362
aI364
aI368
aI369
aI373
aI375
aI376
aI377
aI380
aI383
aI384
aI385
aI386
aI387
aI388
aI389
aI390
aI391
aI393
aI397
aI402
aI403
aI406
aI408
aI410
aI412
aI413
aI417
aI418
aI420
aI421
aI423
aI425
aI426
aI427
aI428
aI430
aI431
aI433
aI434
aI435
aI436
aI438
aI440
aI441
aI443
aI444
aI445
aI447
aI448
aI450
aI452
aI453
aI454
aI456
aI458
aI459
aI461
aI462
aI463
aI466
aI467
aI468
aI473
aI474
aI475
aI478
aI479
aI480
aI481
aI483
aI484
aI486
aI487
aI488
aI492
aI493
aI494
aI497
aI502
aI503
aI506
aI508
aI511
aI512
aI513
aI514
aI515
aI517
aI519
aI521
aI522
aI523
aI524
aI526
aI527
aI528
aI529
aI530
aI532
aI533
aI535
aI536
aI538
aI539
aI542
aI543
aI544
aI550
aI552
aI553
aI555
aI557
aI558
aI559
aI561
aI562
aI563
aI564
aI565
aI566
aI567
aI568
aI569
aI570
aI573
aI574
aI576
aI578
aI580
aI584
aI585
aI586
aI587
aI589
aI590
aI595
aI597
aI598
aI599
aI600
aI603
aI606
aI607
aI608
aI610
aI611
aI612
aI613
aI614
aI615
aI617
aI618
aI620
aI622
aI623
aI625
aI628
aI631
aI633
aI636
aI637
aI638
aI640
aI641
aI644
aI646
aI648
aI650
aI652
aI653
aI654
aI655
aI656
aI657
aI658
aI659
aI660
aI661
aI662
aI663
aI664
aI665
aI666
aI667
aI669
aI671
aI672
aI673
aI674
aI675
aI677
aI678
aI681
aI683
aI684
aI686
aI688
aI689
aI690
aI691
aI693
aI695
aI698
aI699
aI700
aI702
aI703
aI704
aI705
aI706
aI709
aI710
aI711
aI712
aI713
aI714
aI715
aI716
aI717
aI718
aI719
aI720
aI722
aI724
aI725
aI726
aI727
aI728
aI729
aI730
aI732
aI733
aI735
aI736
aI737
aI738
aI739
aI740
aI741
aI744
aI746
aI747
aI748
aI752
aI753
aI754
aI756
aI757
aI758
aI759
aI760
aI761
aI762
aI763
aI764
aI765
aI766
aI771
aI772
aI773
aI774
aI775
aI778
aI779
aI780
aI782
aI784
aI785
aI786
aI787
aI794
aI797
aI798
aI799
aI802
aI803
aI804
aI808
aI813
aI815
aI816
aI820
aI821
aI823
aI824
aI825
aI826
aI827
aI828
aI831
aI834
aI835
aI836
aI837
aI838
aI839
aI840
aI841
aI845
aI846
aI848
aI850
aI851
aI853
aI855
aI856
aI857
aI858
aI859
aI860
aI861
aI862
aI863
aI864
aI865
aI866
aI867
aI868
aI870
aI871
aI872
aI873
aI874
aI876
aI877
aI878
aI879
aI880
aI883
aI884
aI885
aI887
aI888
aI891
aI894
aI896
aI897
aI898
aI899
aI900
aI901
aI902
aI903
aI904
aI905
aI906
aI907
aI911
aI912
aI913
aI914
aI915
aI916
aI917
aI918
aI919
aI920
aI921
aI922
aI923
aI925
aI928
aI932
aI934
aI935
aI939
aI940
aI943
aI945
aI947
aI948
aI949
aI951
aI952
aI954
aI958
aI959
aI960
aI961
aI962
aI966
aI967
aI968
aI969
aI970
aI971
aI974
aI975
aI977
aI978
aI979
aI980
aI981
aI983
aI984
aI985
aI986
aI990
aI991
aI995
aI996
aI998
aI999
aI1000
aI1001
aI1004
aI1005
aI1006
aI1007
aI1008
aI1010
aI1011
aI1013
aI1014
aI1015
aI1016
aI1019
aI1021
aI1023
aI1024
aI1025
aI1026
aI1027
aI1028
aI1029
aI1030
aI1031
aI1033
aI1034
aI1035
aI1036
aI1039
aI1040
aI1042
aI1043
aI1047
aI1048
aI1051
aI1052
aI1053
aI1055
aI1056
aI1059
aI1061
aI1062
aI1063
aI1065
aI1066
aI1068
aI1070
aI1071
aI1073
aI1074
aI1077
aI1078
aI1079
aI1080
aI1083
aI1084
aI1086
aI1088
aI1089
aI1090
aI1092
aI1093
aI1094
aI1095
aI1096
aI1100
aI1101
aI1102
aI1103
aI1105
aI1106
aI1107
aI1108
aI1111
aI1112
aI1114
aI1116
aI1117
aI1118
aI1120
aI1122
aI1124
aI1125
aI1127
aI1128
aI1129
aI1132
aI1135
aI1137
aI1139
aI1140
aI1141
aI1142
aI1143
aI1146
aI1147
aI1152
aI1153
aI1154
aI1155
aI1158
aI1159
aI1160
aI1161
aI1164
aI1166
aI1167
aI1171
aI1172
aI1173
aI1174
aI1176
aI1177
aI1178
aI1179
aI1181
aI1182
aI1184
aI1187
aI1188
aI1189
aI1190
aI1196
aI1197
aI1198
aI1200
aI1202
aI1203
aI1204
aI1205
aI1206
aI1207
aI1208
aI1211
aI1212
aI1214
aI1215
aI1216
aI1217
aI1219
aI1220
aI1221
aI1223
aI1224
aI1226
aI1228
aI1229
aI1230
aI1232
aI1233
aI1234
aI1235
aI1236
aI1237
aI1238
aI1239
aI1243
aI1244
aI1246
aI1248
aI1250
aI1251
aI1253
aI1255
aI1257
aI1258
aI1259
aI1260
aI1261
aI1262
aI1264
aI1268
aI1272
aI1273
aI1278
aI1279
aI1280
aI1281
aI1286
aI1287
aI1289
aI1292
aI1293
aI1294
aI1295
aI1296
aI1298
aI1299
aI1301
aI1302
aI1303
aI1304
aI1305
aI1307
aI1308
aI1309
aI1310
aI1311
aI1312
aI1313
aI1314
aI1315
aI1316
aI1318
aI1319
aI1321
aI1322
aI1323
aI1324
aI1325
aI1326
aI1329
aI1330
aI1331
aI1332
aI1333
aI1335
aI1336
aI1337
aI1339
aI1340
aI1345
aI1347
aI1348
aI1350
aI1351
aI1352
aI1353
aI1358
aI1360
aI1361
aI1362
aI1363
aI1364
aI1366
aI1368
aI1373
aI1374
aI1376
aI1378
aI1379
aI1381
aI1384
aI1385
aI1387
aI1388
aI1389
aI1390
aI1393
aI1394
aI1395
aI1396
aI1397
aI1400
aI1401
aI1402
aI1403
aI1404
aI1405
aI1406
aI1407
aI1410
aI1411
aI1413
aI1418
aI1420
aI1422
aI1423
aI1424
aI1425
aI1426
aI1428
aI1429
aI1430
aI1433
aI1434
aI1436
aI1438
aI1439
aI1440
aI1442
aI1446
aI1447
aI1448
aI1449
aI1451
aI1453
aI1454
aI1456
aI1457
aI1459
aI1460
aI1461
aI1464
aI1465
aI1466
aI1467
aI1468
aI1473
aI1474
aI1475
aI1477
aI1480
aI1481
aI1485
aI1486
aI1487
aI1489
aI1490
aI1491
aI1492
aI1493
aI1495
aI1496
aI1497
aI1498
aI1499
aI1501
aI1504
aI1505
aI1506
aI1507
aI1509
aI1511
aI1512
aI1514
aI1515
aI1516
aI1520
aI1521
aI1522
aI1524
aI1526
aI1528
aI1529
aI1530
aI1531
aI1532
aI1533
aI1534
aI1535
aI1537
aI1540
aI1541
aI1542
aI1544
aI1547
aI1548
aI1549
aI1550
aI1551
aI1552
aI1554
aI1556
aI1557
aI1558
aI1559
aI1570
aI1572
aI1575
aI1576
aI1578
aI1580
aI1584
aI1585
aI1588
aI1592
aI1594
aI1595
aI1596
aI1597
aI1599
aI1602
aI1603
aI1604
aa(lp2
I2
aI4
aI5
aI23
aI27
aI30
aI50
aI54
aI56
aI60
aI65
aI69
aI79
aI89
aI97
aI102
aI106
aI111
aI115
aI122
aI130
aI134
aI144
aI147
aI148
aI149
aI150
aI153
aI155
aI161
aI182
aI186
aI189
aI215
aI224
aI230
aI237
aI243
aI245
aI246
aI253
aI259
aI265
aI266
aI268
aI269
aI272
aI274
aI276
aI279
aI286
aI288
aI298
aI301
aI302
aI303
aI304
aI308
aI310
aI317
aI324
aI331
aI339
aI340
aI347
aI353
aI356
aI363
aI367
aI370
aI374
aI378
aI379
aI381
aI382
aI395
aI396
aI398
aI400
aI405
aI416
aI419
aI422
aI432
aI439
aI442
aI455
aI465
aI469
aI471
aI472
aI477
aI482
aI485
aI490
aI498
aI499
aI504
aI509
aI518
aI525
aI540
aI546
aI548
aI549
aI554
aI556
aI560
aI572
aI582
aI583
aI591
aI593
aI594
aI596
aI601
aI604
aI605
aI609
aI616
aI624
aI626
aI629
aI632
aI639
aI649
aI651
aI670
aI676
aI679
aI680
aI682
aI687
aI692
aI694
aI697
aI707
aI721
aI731
aI742
aI745
aI751
aI755
aI769
aI770
aI776
aI781
aI788
aI789
aI791
aI792
aI793
aI796
aI800
aI801
aI805
aI807
aI810
aI811
aI812
aI814
aI822
aI829
aI830
aI842
aI843
aI844
aI847
aI881
aI882
aI886
aI889
aI892
aI895
aI909
aI926
aI931
aI937
aI941
aI942
aI953
aI955
aI957
aI963
aI973
aI976
aI982
aI988
aI992
aI997
aI1003
aI1012
aI1020
aI1038
aI1045
aI1046
aI1050
aI1057
aI1058
aI1067
aI1075
aI1085
aI1087
aI1091
aI1097
aI1098
aI1104
aI1109
aI1113
aI1119
aI1126
aI1130
aI1134
aI1145
aI1156
aI1157
aI1163
aI1168
aI1169
aI1170
aI1175
aI1186
aI1192
aI1193
aI1199
aI1213
aI1225
aI1240
aI1252
aI1254
aI1266
aI1270
aI1277
aI1284
aI1288
aI1290
aI1297
aI1300
aI1317
aI1320
aI1341
aI1343
aI1346
aI1349
aI1357
aI1367
aI1369
aI1370
aI1377
aI1391
aI1399
aI1409
aI1414
aI1416
aI1427
aI1435
aI1441
aI1452
aI1458
aI1472
aI1484
aI1513
aI1517
aI1518
aI1519
aI1525
aI1538
aI1539
aI1543
aI1560
aI1562
aI1565
aI1566
aI1569
aI1574
aI1577
aI1579
aI1581
aI1583
aI1589
aI1591
aI1600
aa(lp3
I36
aI38
aI39
aI40
aI41
aI45
aI49
aI52
aI53
aI58
aI62
aI70
aI73
aI86
aI87
aI90
aI98
aI103
aI113
aI119
aI124
aI125
aI139
aI142
aI157
aI159
aI160
aI164
aI166
aI169
aI172
aI178
aI184
aI193
aI194
aI195
aI196
aI206
aI207
aI212
aI213
aI219
aI223
aI226
aI227
aI231
aI232
aI244
aI257
aI263
aI264
aI273
aI277
aI282
aI284
aI285
aI287
aI290
aI306
aI315
aI330
aI332
aI333
aI338
aI343
aI344
aI365
aI366
aI371
aI372
aI392
aI394
aI399
aI401
aI404
aI407
aI409
aI411
aI414
aI415
aI424
aI429
aI437
aI446
aI449
aI451
aI457
aI460
aI464
aI470
aI476
aI489
aI491
aI495
aI496
aI500
aI501
aI505
aI507
aI510
aI516
aI520
aI531
aI534
aI537
aI541
aI545
aI547
aI551
aI571
aI575
aI577
aI579
aI581
aI588
aI592
aI602
aI619
aI621
aI627
aI630
aI634
aI635
aI642
aI643
aI645
aI647
aI668
aI685
aI696
aI701
aI708
aI723
aI734
aI743
aI749
aI750
aI767
aI768
aI777
aI783
aI790
aI795
aI806
aI809
aI817
aI818
aI819
aI832
aI833
aI849
aI852
aI854
aI869
aI875
aI890
aI893
aI908
aI910
aI924
aI927
aI929
aI930
aI933
aI936
aI938
aI944
aI946
aI950
aI956
aI964
aI965
aI972
aI987
aI989
aI993
aI994
aI1002
aI1009
aI1017
aI1018
aI1022
aI1032
aI1037
aI1041
aI1044
aI1049
aI1054
aI1060
aI1064
aI1069
aI1072
aI1076
aI1081
aI1082
aI1099
aI1110
aI1115
aI1121
aI1123
aI1131
aI1133
aI1136
aI1138
aI1144
aI1148
aI1149
aI1150
aI1151
aI1162
aI1165
aI1180
aI1183
aI1185
aI1191
aI1194
aI1195
aI1201
aI1209
aI1210
aI1218
aI1222
aI1227
aI1231
aI1241
aI1242
aI1245
aI1247
aI1249
aI1256
aI1263
aI1265
aI1267
aI1269
aI1271
aI1274
aI1275
aI1276
aI1282
aI1283
aI1285
aI1291
aI1306
aI1327
aI1328
aI1334
aI1338
aI1342
aI1344
aI1354
aI1355
aI1356
aI1359
aI1365
aI1371
aI1372
aI1375
aI1380
aI1382
aI1383
aI1386
aI1392
aI1398
aI1408
aI1412
aI1415
aI1417
aI1419
aI1421
aI1431
aI1432
aI1437
aI1443
aI1444
aI1445
aI1450
aI1455
aI1462
aI1463
aI1469
aI1470
aI1471
aI1476
aI1478
aI1479
aI1482
aI1483
aI1488
aI1494
aI1500
aI1502
aI1503
aI1508
aI1510
aI1523
aI1527
aI1536
aI1545
aI1546
aI1553
aI1555
aI1561
aI1563
aI1564
aI1567
aI1568
aI1571
aI1573
aI1582
aI1586
aI1587
aI1590
aI1593
aI1598
aI1601
aa.