(lp0
(lp1
S'B6'
p2
ag2
ag2
aS'A3'
p3
aS'A1'
p4
ag4
aa(lp5
g2
ag2
ag2
ag2
ag3
ag4
ag4
ag4
aS'A2'
p6
aa(lp7
g3
ag6
ag6
ag4
ag4
ag4
ag6
ag6
ag6
ag6
ag6
aa(lp8
S'C'
p9
ag9
ag9
aS'B3'
p10
aS'B4'
p11
ag11
ag11
ag11
ag11
ag11
aS'B7'
p12
ag4
ag4
ag4
ag4
aa(lp13
S'B2'
p14
ag6
ag6
ag6
ag6
ag6
ag6
ag4
ag4
aS'B8'
p15
aa(lp16
g3
ag3
ag6
ag4
ag4
ag4
ag4
ag4
ag6
ag15
ag15
ag15
aa(lp17
g12
ag12
ag3
ag3
ag4
ag4
ag4
ag4
aa(lp18
g10
ag10
ag10
ag10
ag10
ag4
ag4
aa(lp19
g10
ag10
ag10
ag10
ag3
ag4
ag4
aa(lp20
g3
ag4
ag4
ag6
ag6
aa(lp21
g9
aS'B5'
p22
ag22
ag22
ag22
ag4
ag4
ag4
ag4
ag15
aa(lp23
g2
ag10
ag2
ag2
ag12
ag4
ag4
ag4
ag4
aa(lp24
g2
ag2
ag2
ag2
ag2
ag3
ag3
ag4
ag15
aa(lp25
g14
ag14
ag14
ag6
ag4
aa(lp26
g14
ag2
ag11
ag10
ag6
ag6
ag4
ag4
ag4
ag4
ag4
aa(lp27
g14
ag14
ag2
ag3
ag6
ag4
ag4
ag4
ag4
aa(lp28
g10
ag10
ag10
ag10
ag10
ag10
ag10
ag2
ag3
ag6
ag4
aa(lp29
g9
aS'B1'
p30
ag30
ag30
ag30
ag6
ag4
ag4
ag4
ag15
aa(lp31
g10
ag6
ag6
ag6
ag6
ag4
ag4
aa(lp32
g12
ag12
ag12
ag12
ag3
ag6
ag6
ag6
ag6
ag4
aa(lp33
g10
ag10
ag10
ag10
ag3
ag4
ag4
ag4
aa(lp34
g30
ag6
ag6
ag6
ag4
ag4
ag4
aa(lp35
g14
ag14
ag14
ag6
ag4
ag4
ag4
aa(lp36
g6
ag6
ag6
ag6
ag6
ag6
ag6
ag6
ag6
ag4
ag4
ag4
ag4
ag4
ag15
ag15
ag15
aa(lp37
g22
ag4
ag4
aa(lp38
g10
ag10
ag10
ag10
ag10
ag3
ag6
ag4
ag4
aa(lp39
g22
ag11
ag4
ag4
aa(lp40
g3
ag3
ag4
ag4
ag4
ag4
ag4
ag15
aa(lp41
g11
ag11
ag11
ag3
ag6
ag6
ag6
ag4
ag4
ag6
aa(lp42
g2
ag2
ag4
aa(lp43
g4
ag4
ag4
ag4
ag4
ag4
ag4
ag4
aa(lp44
g6
ag4
ag4
ag15
ag15
aa(lp45
S'Y'
p46
ag10
ag3
ag4
aa(lp47
g9
ag9
ag3
ag3
ag4
ag4
aa(lp48
g12
ag4
ag4
aa(lp49
g22
ag22
ag14
ag11
ag3
ag6
ag4
ag4
ag4
aa(lp50
g9
ag9
ag9
ag9
ag9
ag9
ag9
ag6
ag6
ag6
ag4
ag4
ag4
aa(lp51
g30
aS'A4'
p52
ag4
ag6
ag6
ag6
aa(lp53
g9
ag9
ag9
ag9
ag4
ag4
ag4
ag4
aa(lp54
g9
ag9
ag9
ag9
ag9
ag9
ag30
ag3
ag4
ag4
aa(lp55
g9
ag9
ag9
ag9
ag9
ag9
ag3
ag4
aa(lp56
g9
ag9
ag9
ag9
ag9
ag9
ag9
ag9
ag30
ag2
ag3
ag4
ag4
aa(lp57
g30
ag3
ag4
ag4
ag4
ag4
aa(lp58
g11
ag11
ag11
ag11
ag11
ag4
ag4
ag4
aa(lp59
g46
ag30
ag30
ag30
ag6
ag4
ag4
ag4
aa(lp60
g9
ag9
ag9
ag9
ag9
ag4
aa(lp61
g22
ag4
aa(lp62
g9
ag46
ag22
ag22
ag22
ag3
ag3
ag6
ag6
ag6
ag4
ag4
aa(lp63
g9
ag9
ag6
ag6
ag6
ag6
ag4
ag4
aa(lp64
g9
ag9
ag9
ag9
ag9
ag9
ag4
ag4
ag6
aa(lp65
g3
ag6
ag6
ag4
ag4
ag4
ag4
ag4
ag4
ag4
ag4
ag4
ag4
ag4
ag4
ag6
ag6
ag15
aa(lp66
g4
ag4
ag4
ag4
ag6
aa(lp67
g9
ag9
ag9
ag4
ag4
aa(lp68
g9
ag9
ag22
ag4
aa(lp69
g4
ag4
ag4
ag4
ag4
ag4
aa(lp70
g10
ag4
ag4
aa(lp71
g10
ag6
ag6
ag6
ag4
ag4
ag4
ag4
ag4
aa(lp72
g30
ag4
ag6
aa(lp73
g9
ag9
ag9
ag12
ag6
ag6
ag4
ag4
ag6
ag15
aa(lp74
g10
ag2
ag2
ag30
ag3
ag6
ag6
ag4
ag4
ag4
ag4
aa(lp75
g9
ag30
ag30
ag3
ag6
ag6
ag6
ag6
ag6
ag6
ag6
ag4
ag4
ag4
ag15
aa(lp76
g30
ag30
ag30
ag4
ag4
aa(lp77
g9
ag9
ag9
ag9
ag6
ag6
ag4
aa(lp78
g30
ag30
ag30
ag30
ag30
ag30
ag30
ag6
ag4
ag4
ag6
aa(lp79
g11
ag11
ag11
ag11
ag11
ag3
ag3
ag4
ag4
aa(lp80
g3
ag6
ag6
ag4
ag6
ag6
ag6
ag6
aa(lp81
g30
ag30
ag30
ag30
ag30
ag30
ag4
aa(lp82
g30
ag30
ag2
ag4
ag4
ag15
aa(lp83
g30
ag30
ag3
ag6
ag6
ag6
ag6
ag4
aa(lp84
g14
ag14
ag14
ag14
ag14
ag3
ag6
ag6
ag6
ag4
ag4
ag4
ag4
ag4
aa(lp85
g9
ag9
ag9
ag12
ag4
ag4
aa(lp86
g10
ag10
ag12
ag12
ag22
ag3
ag4
ag4
ag4
ag6
aa(lp87
g14
ag14
ag14
ag14
ag14
ag14
ag14
ag4
ag4
aa(lp88
g9
ag9
ag30
ag4
ag6
aa(lp89
g46
ag30
ag30
ag30
ag30
ag30
ag4
ag4
aa(lp90
g11
ag11
ag10
ag6
ag6
ag4
ag4
ag6
ag6
ag15
aa(lp91
g22
ag22
ag22
ag22
ag22
ag4
aa(lp92
g46
ag30
ag3
ag6
ag6
ag6
ag4
ag4
aa(lp93
g30
ag30
ag30
ag30
ag30
ag3
ag4
ag4
ag4
ag4
ag6
ag6
ag6
aa(lp94
g3
ag6
ag6
ag6
ag6
ag6
ag6
ag6
ag6
ag6
ag4
ag4
ag4
ag4
ag4
ag4
ag4
ag4
aa(lp95
g46
ag30
ag30
ag30
aa(lp96
g9
ag9
ag30
ag30
ag30
ag12
ag22
ag22
ag3
ag4
ag4
ag4
ag4
ag4
ag4
ag15
ag15
aa(lp97
g12
ag46
ag12
ag12
ag14
ag14
ag6
ag4
ag4
ag4
aa(lp98
g9
ag9
ag22
ag22
ag3
ag52
ag4
ag4
ag4
ag4
ag4
ag15
aa(lp99
g4
aa(lp100
g46
aa(lp101
g9
ag9
ag9
ag9
ag9
ag4
ag4
aa(lp102
g9
ag9
ag9
ag9
ag9
ag12
ag4
aa(lp103
g11
ag11
ag11
ag11
ag11
ag4
aa(lp104
g3
ag3
ag4
ag4
ag4
ag4
ag4
ag15
aa(lp105
g9
ag9
ag9
ag4
ag4
ag6
ag15
aa(lp106
g9
ag9
ag9
ag4
aa(lp107
g46
ag14
ag14
ag6
ag4
aa(lp108
g4
ag4
aa(lp109
g9
ag30
ag30
ag30
ag10
ag4
ag4
ag4
ag4
ag6
ag6
aa(lp110
g2
ag2
ag2
ag4
ag4
aa(lp111
g10
ag10
ag10
ag10
ag10
ag10
ag10
ag6
ag4
ag4
ag4
ag4
aa(lp112
g9
ag9
ag9
ag9
ag9
ag12
ag14
ag14
ag6
ag4
ag4
ag4
ag4
ag4
ag4
ag4
ag6
ag15
ag15
aa(lp113
g9
ag9
ag9
ag9
ag9
ag9
ag9
ag3
ag4
ag4
ag4
ag4
aa(lp114
g22
ag22
ag22
ag22
ag22
ag6
ag4
aa(lp115
g4
aa(lp116
g30
ag3
ag3
ag6
ag6
ag6
ag6
ag6
ag4
aa(lp117
g9
ag9
ag30
ag30
ag3
ag3
ag6
ag6
ag4
ag4
ag4
ag4
ag4
ag6
ag15
ag15
aa(lp118
g9
ag9
ag9
ag9
ag9
ag3
ag4
ag6
ag6
aa(lp119
g10
ag10
ag6
ag4
ag4
ag4
ag4
aa(lp120
g46
ag2
aa(lp121
g9
ag11
ag11
ag6
ag4
ag4
ag4
ag4
ag4
ag4
ag4
ag15
aa(lp122
g46
ag30
ag4
aa(lp123
g46
ag10
ag10
ag14
ag6
ag4
ag4
ag4
aa(lp124
g46
ag30
ag4
aa(lp125
g10
ag10
ag6
ag6
ag6
ag6
ag4
ag6
aa(lp126
g3
ag6
ag6
ag6
ag6
ag6
ag6
ag6
ag4
ag4
ag4
ag4
ag4
ag4
ag4
ag4
ag4
ag4
ag4
ag4
ag4
ag4
ag4
ag4
ag15
ag15
aa(lp127
g46
ag14
ag14
ag4
ag4
ag4
ag4
aa(lp128
g9
ag9
ag9
ag9
ag9
ag9
ag9
ag22
ag22
ag3
ag3
ag4
ag4
ag15
ag15
aa(lp129
g22
ag3
ag6
ag6
ag6
ag4
ag4
ag15
ag15
ag15
aa(lp130
g30
ag30
ag6
ag6
ag6
ag4
ag4
ag4
ag4
ag6
ag6
aa(lp131
g9
ag9
ag30
ag30
ag30
ag30
ag3
ag4
ag4
ag4
aa(lp132
g11
ag11
ag3
ag6
ag4
aa(lp133
g22
ag22
ag22
ag2
ag2
ag3
ag3
ag4
ag4
aa(lp134
g9
ag9
ag9
ag22
ag22
ag4
aa(lp135
g30
ag30
ag22
ag10
ag30
ag10
ag4
ag4
ag4
aa(lp136
g46
ag14
ag14
aa(lp137
g9
ag10
ag10
ag3
ag3
ag6
ag6
ag6
ag6
ag6
ag6
ag6
ag4
ag4
ag4
ag4
ag4
ag6
ag15
ag15
ag15
aa(lp138
g9
ag9
ag10
ag10
ag10
ag10
ag10
ag12
ag12
ag4
ag4
ag4
ag15
aa(lp139
g9
ag9
ag9
ag9
ag9
ag9
ag9
ag9
ag6
ag6
ag4
ag4
ag4
ag4
ag4
ag4
aa(lp140
g9
ag9
ag9
ag9
ag6
ag6
ag4
ag6
aa(lp141
g9
ag46
ag22
ag22
ag22
ag10
ag4
aa(lp142
g30
ag30
ag30
ag30
ag30
ag4
aa(lp143
g9
ag14
ag3
ag4
ag4
aa(lp144
g2
ag2
ag2
ag2
ag6
ag6
ag4
aa(lp145
g10
ag3
ag6
ag6
ag6
ag6
ag6
ag6
ag4
ag4
ag4
ag4
ag6
ag6
ag6
aa(lp146
g14
ag6
ag6
ag4
ag4
aa(lp147
g10
ag10
ag6
ag6
ag6
ag4
ag4
aa(lp148
g2
ag2
ag4
ag4
ag6
aa(lp149
g22
ag6
ag6
ag6
ag6
ag6
ag4
ag4
ag4
ag4
ag4
aa(lp150
g46
aa(lp151
g22
ag22
ag22
ag22
ag22
ag22
ag22
ag14
ag4
ag4
ag4
aa(lp152
g46
ag12
ag30
ag30
ag30
ag10
ag6
ag6
ag6
ag4
ag4
ag4
aa(lp153
g12
ag12
ag12
ag12
ag4
ag4
ag4
ag4
ag4
ag12
aa(lp154
g9
ag9
ag9
ag9
ag4
aa(lp155
g4
ag4
ag4
aa(lp156
g14
ag30
ag30
ag11
ag6
ag4
ag4
aa(lp157
g9
ag9
ag9
ag9
ag12
ag12
ag4
ag4
ag4
ag4
ag6
ag15
aa(lp158
g6
ag6
ag4
ag6
aa(lp159
g2
ag6
ag6
ag4
ag4
ag4
ag4
ag4
ag4
ag4
ag4
aa(lp160
g4
ag4
aa(lp161
g9
ag3
ag4
ag4
ag4
ag4
aa(lp162
g9
ag9
ag9
ag9
ag9
ag3
ag6
ag6
ag6
ag6
ag6
ag6
ag4
ag4
ag4
ag4
ag4
ag4
ag4
ag4
ag4
ag4
ag4
ag15
ag15
ag15
ag15
aa(lp163
g3
ag3
ag3
ag4
ag4
ag4
ag4
ag4
ag4
ag4
ag4
aa(lp164
g4
ag4
ag4
ag4
ag4
ag4
aa(lp165
g3
ag6
ag6
ag6
ag6
ag6
ag6
ag4
ag4
ag4
ag4
ag15
ag15
ag15
aa(lp166
g22
ag22
ag22
ag4
ag4
aa(lp167
g22
ag22
ag22
ag4
ag4
aa(lp168
g3
ag6
ag6
ag6
ag6
ag6
ag4
ag4
ag4
ag4
ag4
ag4
ag4
ag4
ag4
ag4
ag6
aa(lp169
g9
ag10
ag10
ag10
ag10
ag3
ag6
ag6
ag4
ag4
aa(lp170
g3
ag6
ag6
ag6
ag6
ag4
ag4
ag4
aa(lp171
g46
ag30
ag30
ag4
aa(lp172
g9
ag9
ag9
ag9
ag9
ag9
ag11
ag11
ag4
ag4
aa(lp173
g12
ag12
ag12
ag11
ag11
ag4
ag4
aa(lp174
g9
ag9
ag9
ag9
ag4
ag4
aa(lp175
g9
ag9
ag9
ag9
ag9
ag4
aa(lp176
g3
ag3
ag6
ag6
ag6
ag52
ag4
ag4
ag4
ag4
ag4
ag4
ag4
ag4
ag15
ag15
aa(lp177
g2
ag2
ag2
ag2
ag4
ag4
aa(lp178
g22
ag4
ag4
aa(lp179
g9
ag9
ag9
ag9
ag9
ag3
ag4
ag4
aa(lp180
g10
ag10
ag10
ag10
ag10
ag4
aa(lp181
g9
ag9
ag9
ag9
ag9
ag14
ag30
ag4
ag4
ag4
ag4
aa(lp182
g46
ag14
ag14
ag11
ag11
ag11
ag12
ag3
ag6
ag4
ag4
aa(lp183
g30
ag30
ag30
ag4
aa(lp184
g9
ag9
ag9
ag9
ag9
ag9
ag3
ag4
aa(lp185
g14
ag14
ag14
ag14
ag14
ag4
ag4
aa(lp186
g46
ag22
aa(lp187
g9
ag9
ag9
ag9
ag9
ag9
ag9
ag4
ag4
aa(lp188
g14
ag14
ag14
ag14
ag14
ag14
ag14
ag4
ag4
aa(lp189
g9
ag9
ag12
ag12
ag22
ag10
ag6
ag6
ag6
ag4
ag4
ag4
aa(lp190
g2
ag12
ag12
ag12
ag12
ag12
ag3
ag6
ag6
ag4
ag4
ag4
ag4
ag4
aa(lp191
g10
ag10
ag3
ag4
ag4
aa(lp192
g22
ag22
ag4
ag4
aa(lp193
g9
ag9
ag9
ag9
ag4
aa(lp194
g46
ag22
ag22
ag22
ag3
ag4
aa(lp195
g3
ag3
ag4
ag4
ag6
aa(lp196
g9
ag9
ag22
ag22
ag4
aa(lp197
g30
ag30
ag3
ag6
ag6
ag6
ag6
ag6
ag6
ag6
ag6
ag4
ag4
ag4
ag4
ag4
ag4
ag4
ag6
ag6
ag15
aa(lp198
g4
aa(lp199
g9
ag9
ag9
ag9
ag9
ag9
ag9
ag3
ag4
aa(lp200
g10
ag12
ag10
ag10
ag10
ag10
ag4
aa(lp201
g3
ag6
ag6
ag6
ag6
ag4
ag4
ag4
ag4
ag15
aa(lp202
g9
ag11
ag11
ag11
ag30
ag4
ag15
aa(lp203
g46
ag30
ag30
ag4
aa(lp204
g9
ag3
ag6
ag6
ag6
ag4
ag4
ag4
ag4
ag4
aa(lp205
g14
ag14
ag14
ag4
ag4
ag4
aa(lp206
g11
ag11
ag3
ag4
aa(lp207
g11
ag11
ag11
ag11
ag4
aa(lp208
g9
ag9
ag9
ag9
ag4
aa(lp209
g9
ag9
ag9
ag9
ag9
ag4
ag4
aa(lp210
g9
ag9
ag9
ag9
ag9
ag14
ag3
ag4
aa(lp211
g9
ag9
ag9
ag9
ag9
ag9
ag9
ag4
ag4
ag4
ag4
aa(lp212
g46
ag30
ag30
ag3
ag4
aa(lp213
g3
ag6
ag6
ag6
ag6
ag4
ag4
aa(lp214
g9
ag9
ag3
ag3
ag4
ag4
aa(lp215
g9
ag9
ag4
ag15
aa(lp216
g4
aa(lp217
g30
ag30
ag30
ag30
ag30
ag30
ag6
ag52
ag4
ag4
aa(lp218
g14
ag14
ag14
ag10
ag3
ag6
ag4
ag4
ag4
aa(lp219
g14
ag14
ag14
ag14
ag3
ag4
ag4
ag4
ag6
aa(lp220
g9
ag6
ag6
ag4
ag4
ag15
ag15
ag15
aa(lp221
g9
ag9
ag9
ag9
ag9
ag9
ag4
ag4
ag4
aa(lp222
g9
ag9
ag9
ag9
ag4
aa(lp223
g4
ag4
aa(lp224
g9
ag10
ag10
ag3
ag3
ag3
ag52
ag52
ag4
ag4
ag4
ag15
aa(lp225
g10
ag4
ag4
aa(lp226
g11
ag11
ag11
ag6
ag6
ag4
ag4
ag4
aa(lp227
g9
ag9
ag9
ag9
ag9
ag4
aa(lp228
g9
ag9
ag9
ag2
ag4
aa(lp229
g46
ag14
ag14
ag12
ag6
ag6
ag4
aa(lp230
g10
ag10
ag3
ag6
ag6
ag6
ag6
ag6
ag6
ag4
ag4
aa(lp231
g2
ag2
ag2
ag2
ag4
aa(lp232
g10
ag10
ag10
ag3
ag3
ag6
ag4
ag4
ag4
aa(lp233
g3
ag6
ag6
ag6
ag6
ag4
ag4
aa(lp234
g9
ag9
ag9
ag9
ag9
ag4
ag4
aa(lp235
g2
ag2
ag2
ag2
ag4
ag4
ag4
ag6
aa(lp236
g9
ag4
ag6
aa(lp237
g30
ag30
ag30
ag30
ag30
ag30
ag3
ag6
ag6
ag6
ag6
ag4
ag4
aa(lp238
g9
ag9
ag9
ag9
ag4
ag6
ag6
aa(lp239
g9
ag9
ag3
ag6
ag6
ag6
ag6
ag6
ag6
ag4
ag4
ag4
ag4
ag4
ag4
ag4
ag4
aa(lp240
g46
ag22
ag22
ag4
ag4
aa(lp241
g9
ag9
ag9
ag9
ag9
ag4
ag4
aa(lp242
g9
ag9
ag9
ag9
ag9
ag3
ag4
ag4
aa(lp243
g46
ag14
ag14
aa(lp244
g11
ag11
ag11
ag3
ag3
ag4
ag4
ag15
ag15
aa(lp245
g9
ag30
ag30
ag3
ag3
ag3
ag6
ag6
ag6
ag6
ag6
ag6
ag6
ag6
ag4
ag4
ag4
ag4
ag4
ag15
aa(lp246
g9
ag9
ag9
ag9
ag9
ag9
ag3
ag4
ag6
aa(lp247
g9
ag9
ag9
ag9
ag9
ag9
ag9
ag9
ag3
ag4
ag4
aa(lp248
g46
ag30
aa(lp249
g30
ag30
ag30
ag30
ag4
aa(lp250
g46
ag12
ag12
ag2
ag14
ag3
ag4
aa(lp251
g9
ag4
ag4
ag4
ag4
aa(lp252
g46
ag14
ag30
ag3
ag6
ag6
ag6
ag6
ag6
ag4
ag4
ag4
ag4
ag4
aa(lp253
g4
ag4
ag4
aa(lp254
g22
ag22
ag22
ag22
ag4
ag4
ag4
aa(lp255
g9
ag4
ag4
ag4
ag4
aa(lp256
g46
ag12
aa(lp257
g12
ag12
ag4
ag4
aa(lp258
g3
ag6
ag6
ag6
ag6
ag6
ag6
ag6
ag4
ag4
ag4
ag4
ag6
aa(lp259
g9
ag9
ag9
ag9
ag9
ag9
ag9
ag4
ag4
ag4
aa(lp260
g6
ag6
ag6
ag6
ag4
ag4
ag4
aa(lp261
g3
ag3
ag3
ag6
ag6
ag6
ag6
ag6
ag6
ag4
ag4
aa(lp262
g10
ag10
ag10
ag10
ag3
ag3
ag4
aa(lp263
g10
ag10
ag10
ag10
ag4
aa(lp264
g30
ag3
ag4
ag4
aa(lp265
g12
ag12
ag12
ag12
ag12
ag12
ag30
ag4
ag4
aa(lp266
g22
ag22
ag3
ag6
ag4
ag4
ag4
ag4
aa(lp267
g4
aa(lp268
g3
ag3
ag6
ag6
ag4
ag4
ag4
ag4
ag6
ag6
aa(lp269
g11
ag6
ag6
ag6
ag6
ag4
aa(lp270
g22
ag3
ag6
ag6
ag6
ag6
ag6
ag4
ag4
aa(lp271
g46
ag11
ag11
ag11
ag11
ag4
aa(lp272
g9
ag9
ag4
ag4
ag4
ag4
ag4
aa(lp273
g22
ag22
ag22
ag22
ag22
ag3
ag6
ag6
ag6
ag4
ag4
ag6
aa(lp274
g14
ag14
ag3
ag3
ag3
ag6
ag6
ag6
ag4
ag4
ag4
ag4
ag15
ag15
aa(lp275
g10
ag14
ag14
ag14
ag14
ag3
ag6
ag4
aa(lp276
g4
aa(lp277
g46
ag30
ag30
ag30
ag30
ag30
ag30
ag30
ag3
ag6
ag4
aa(lp278
g9
ag9
ag9
ag9
ag9
ag3
ag4
aa(lp279
g9
ag9
ag9
ag9
ag9
ag30
ag30
ag30
ag3
ag4
ag4
ag4
ag4
ag4
aa(lp280
g3
ag6
ag6
ag6
ag6
ag6
ag4
ag4
aa(lp281
g46
ag10
ag10
ag10
ag3
ag3
ag6
ag6
ag6
ag4
ag4
ag4
ag4
aa(lp282
g46
ag30
ag30
ag30
ag30
ag30
ag4
aa(lp283
g6
ag6
ag6
ag52
ag4
ag4
ag4
aa(lp284
g46
ag30
ag30
ag30
ag3
ag3
ag6
ag6
ag6
ag4
ag4
ag4
ag4
ag4
aa(lp285
g9
ag6
ag4
aa(lp286
g12
ag12
ag12
ag3
ag4
ag4
aa(lp287
g10
ag3
ag3
ag6
ag6
ag6
ag6
ag6
ag6
ag4
ag4
ag6
aa(lp288
g9
ag9
ag9
ag9
ag9
ag4
ag6
aa(lp289
g3
ag6
ag6
ag6
ag4
ag4
ag4
ag6
ag6
ag6
ag6
aa(lp290
g46
ag14
ag3
ag6
ag6
ag6
ag6
ag4
ag4
aa(lp291
g46
ag30
ag11
ag3
ag6
ag6
ag6
ag6
ag6
ag6
ag4
ag4
aa(lp292
g9
ag9
ag9
ag9
ag3
ag4
ag4
aa(lp293
g4
aa(lp294
g22
ag6
ag6
ag6
ag6
ag4
ag4
ag4
ag4
ag4
ag4
ag4
aa(lp295
g30
ag22
ag22
ag22
ag14
ag14
ag14
ag3
ag4
ag4
ag4
ag4
aa(lp296
g4
ag4
ag4
aa(lp297
g9
ag9
ag3
ag3
ag6
ag4
ag6
aa(lp298
g46
ag30
ag30
ag30
ag12
ag6
ag4
ag4
ag4
ag4
ag4
ag4
ag4
aa(lp299
g9
ag9
ag9
ag9
ag9
ag3
ag4
ag6
ag6
aa(lp300
g9
ag9
ag9
ag9
ag4
ag4
aa(lp301
g3
ag3
ag6
ag6
ag4
ag4
ag4
ag4
ag4
ag4
ag4
ag4
aa(lp302
g9
ag9
ag9
ag6
ag6
ag6
ag4
ag4
ag4
ag15
ag15
aa(lp303
g2
ag2
ag2
ag2
ag3
ag3
ag6
ag6
ag6
ag6
ag4
ag4
ag6
aa(lp304
g46
ag14
ag3
ag6
ag6
ag6
ag6
ag4
ag4
aa(lp305
g9
ag9
ag9
ag9
ag9
ag9
ag14
ag14
ag3
ag3
ag6
ag4
ag4
ag4
ag4
ag4
aa(lp306
g14
ag14
ag14
ag14
ag14
ag3
ag6
ag6
ag6
ag4
ag4
ag4
aa(lp307
g46
ag22
ag2
ag2
ag2
ag22
ag3
ag4
ag4
aa(lp308
g22
ag12
ag22
ag22
ag22
ag4
aa(lp309
g10
ag10
ag10
ag10
ag3
ag6
ag6
ag4
ag4
aa(lp310
g30
ag30
ag30
ag30
ag30
ag30
ag3
ag4
aa(lp311
g22
ag22
ag22
ag2
ag2
ag2
ag4
ag4
ag15
ag15
aa(lp312
g46
ag2
ag2
ag4
aa(lp313
g9
ag9
ag9
ag2
ag12
ag12
ag3
ag6
ag6
ag6
ag4
ag4
ag4
ag4
ag4
ag4
ag4
ag4
ag4
ag4
ag4
ag4
ag6
ag6
aa(lp314
g14
ag22
ag22
ag30
ag30
ag6
ag6
ag6
ag6
ag4
ag4
ag4
ag15
aa(lp315
g46
ag2
ag2
ag2
ag2
ag2
ag4
ag4
aa(lp316
g30
ag30
ag30
ag30
ag30
ag3
ag6
ag6
ag6
ag6
ag4
ag4
ag4
ag4
aa(lp317
g2
ag2
ag10
ag3
ag3
ag6
ag6
ag6
ag4
ag4
ag4
ag4
ag4
ag4
ag4
ag4
ag4
ag4
ag6
ag6
aa(lp318
g3
ag3
ag3
ag6
ag6
ag6
ag6
ag6
ag4
ag4
ag4
ag4
ag4
ag4
ag4
ag4
ag4
ag4
ag4
ag4
ag4
ag6
aa(lp319
g3
ag3
ag6
ag6
ag6
ag6
ag4
ag4
ag4
ag4
ag4
ag4
ag4
ag6
ag6
aa(lp320
g11
ag4
aa(lp321
g9
ag9
ag9
ag9
ag9
ag9
ag2
ag4
ag4
aa(lp322
g9
ag46
ag22
ag22
aa(lp323
g9
ag12
ag22
ag2
ag3
ag3
ag4
ag4
ag4
ag4
ag4
ag4
ag4
ag4
ag4
ag4
ag4
ag4
ag4
ag4
ag4
ag6
ag6
ag15
aa(lp324
g9
ag9
ag4
ag4
aa(lp325
g9
ag9
ag9
ag10
ag22
ag22
ag22
ag22
ag6
ag6
ag6
ag6
ag4
ag4
ag4
ag4
ag4
ag4
ag4
ag4
ag4
ag4
ag4
ag6
aa(lp326
g46
ag30
ag30
ag6
ag6
ag6
ag4
ag4
aa(lp327
g46
ag30
ag14
ag4
aa(lp328
g22
ag22
ag22
ag4
aa(lp329
g46
ag2
ag4
aa(lp330
g9
ag9
ag9
ag9
ag9
ag14
ag3
ag4
aa(lp331
g3
ag3
ag4
ag4
ag4
ag4
ag4
aa(lp332
g30
ag3
ag6
ag6
ag6
ag6
ag6
ag4
ag4
ag4
ag4
ag4
ag4
ag15
aa(lp333
g11
ag11
ag11
ag11
ag11
ag11
ag4
ag4
aa(lp334
g30
ag30
ag30
ag30
ag30
ag22
ag2
ag3
ag4
ag4
aa(lp335
g9
ag10
ag10
ag14
ag14
ag3
ag52
ag52
ag4
ag4
ag4
ag4
ag15
ag15
aa(lp336
g46
ag11
ag6
ag4
ag4
ag6
aa(lp337
g10
ag6
ag6
ag4
ag15
aa(lp338
g46
ag30
ag30
ag30
ag30
ag6
ag4
ag4
ag4
ag4
ag4
aa(lp339
g9
ag9
ag9
ag9
ag9
ag9
ag22
ag10
ag3
ag3
ag6
ag4
ag4
ag4
ag4
ag4
ag4
ag15
ag15
aa(lp340
g11
ag11
ag6
ag6
ag6
ag4
aa(lp341
g14
ag14
ag14
ag14
ag14
ag4
ag4
ag4
ag15
aa(lp342
g4
ag4
ag4
aa(lp343
g12
ag2
ag12
ag12
ag3
ag4
ag4
ag4
aa(lp344
g22
ag22
ag22
ag4
ag4
ag4
ag4
aa(lp345
g9
ag9
ag9
ag9
ag9
ag11
ag4
ag4
ag4
aa(lp346
g3
ag6
ag6
ag6
ag6
ag4
ag6
ag15
aa(lp347
g9
ag9
ag9
ag9
ag4
ag4
aa(lp348
g9
ag9
ag9
ag9
ag12
ag12
ag4
ag4
ag4
aa(lp349
g30
ag30
ag30
ag4
aa(lp350
g2
ag4
aa(lp351
g12
ag12
ag12
ag12
ag4
ag4
ag4
aa(lp352
g12
ag12
ag12
ag4
ag6
ag6
aa(lp353
g9
ag9
ag9
ag9
ag9
ag9
ag9
ag9
ag9
ag9
ag11
ag4
ag4
ag4
ag4
ag6
ag15
ag15
aa(lp354
g3
ag6
ag6
ag6
ag6
ag6
ag6
ag4
ag4
ag4
ag4
ag4
ag4
ag4
aa(lp355
g10
ag12
ag3
ag6
ag6
ag6
ag6
ag6
ag6
ag4
ag4
ag4
aa(lp356
g22
ag22
ag22
ag22
ag22
ag22
ag22
ag22
ag4
ag4
ag4
aa(lp357
g22
ag22
ag22
ag4
ag4
ag4
aa(lp358
g9
ag9
ag9
ag9
ag9
ag4
aa(lp359
g9
ag9
ag9
ag9
ag10
ag4
ag4
ag4
ag6
aa(lp360
g14
ag14
ag14
ag14
ag14
ag22
ag30
ag30
ag30
ag6
ag4
ag4
ag4
ag4
ag4
aa(lp361
g9
ag9
ag9
ag30
ag2
ag2
ag2
ag2
ag10
ag6
ag4
ag4
ag6
ag6
ag15
ag15
aa(lp362
g3
ag3
ag6
ag6
ag6
ag6
ag6
ag6
ag6
ag4
ag4
ag4
ag4
aa(lp363
g22
ag22
ag22
ag14
ag6
ag4
ag4
ag4
aa(lp364
g9
ag9
ag9
ag9
ag46
ag22
ag22
ag22
ag6
ag4
ag4
ag4
ag4
ag4
ag4
aa(lp365
g14
ag4
aa(lp366
g46
ag30
ag30
ag30
ag30
ag30
ag10
ag6
ag4
aa(lp367
g22
ag4
aa(lp368
g9
ag10
ag6
ag6
ag52
ag52
ag4
ag4
ag4
ag4
ag4
ag6
ag6
ag6
aa(lp369
g22
ag3
ag3
ag6
ag6
ag6
ag4
ag4
ag4
aa(lp370
g2
ag2
ag2
ag2
ag2
ag3
ag6
ag4
ag4
ag4
ag4
ag4
aa(lp371
g46
ag30
ag30
ag30
ag10
ag10
ag3
ag6
ag6
ag6
ag6
ag4
ag4
ag4
ag4
aa(lp372
g46
ag3
ag6
ag6
ag6
ag6
ag6
ag4
aa(lp373
g46
ag2
ag2
ag2
ag2
ag2
ag6
ag6
ag4
ag4
aa(lp374
g46
ag2
ag2
ag22
ag22
ag3
ag3
ag4
ag4
ag4
aa(lp375
g9
ag9
ag12
ag12
ag12
ag12
ag12
ag3
ag4
ag15
aa(lp376
g9
ag30
ag30
ag30
ag52
ag4
ag4
ag4
ag4
ag4
aa(lp377
g30
ag30
ag30
ag30
ag30
ag3
ag6
ag6
ag4
ag4
ag4
aa(lp378
g6
ag4
ag4
ag4
ag4
ag4
ag4
aa(lp379
g9
ag9
ag9
ag30
ag30
ag30
ag22
ag4
ag4
ag4
ag4
ag15
ag15
ag15
aa(lp380
g9
ag9
ag9
ag9
ag4
ag4
ag4
aa(lp381
g9
ag9
ag9
ag9
ag9
ag4
ag4
ag4
ag4
ag4
aa(lp382
g9
ag46
ag30
ag30
ag6
ag6
ag6
ag6
ag6
ag6
ag6
ag4
ag4
ag4
ag4
ag4
ag4
aa(lp383
g30
ag30
ag30
ag30
ag30
ag30
ag3
ag6
ag4
ag4
ag4
ag4
ag4
aa(lp384
g9
ag14
ag30
ag30
ag4
ag4
ag4
ag4
aa(lp385
g3
ag6
ag6
ag6
ag6
ag6
ag6
ag6
ag6
ag4
aa(lp386
g9
ag9
ag9
ag9
ag9
ag4
ag4
aa(lp387
g9
ag9
ag9
ag9
ag9
ag3
ag4
ag4
aa(lp388
g30
ag6
ag4
aa(lp389
g3
ag6
ag6
ag6
ag6
ag6
ag4
ag4
aa(lp390
g30
ag12
ag3
ag4
ag4
ag4
ag4
ag4
ag4
ag6
aa(lp391
g30
ag30
ag30
ag4
aa(lp392
g46
ag30
ag30
ag4
ag4
aa(lp393
g12
ag12
ag3
ag6
ag6
ag6
ag4
ag4
ag4
ag4
ag4
aa(lp394
g10
ag10
ag3
ag3
ag3
ag6
ag6
ag6
ag6
ag4
ag4
ag4
ag4
ag46
ag4
ag6
ag6
ag15
aa(lp395
g46
ag2
ag2
ag4
aa(lp396
g46
ag3
ag6
ag6
ag6
ag6
ag4
ag4
ag4
aa(lp397
g22
ag22
ag22
ag3
ag6
ag6
ag6
ag6
ag6
ag6
ag6
ag4
ag4
aa(lp398
g22
ag11
ag11
ag11
ag11
ag22
ag22
ag4
ag4
ag4
ag4
aa(lp399
g11
ag11
ag11
ag11
ag11
ag4
aa(lp400
g10
ag10
ag10
ag10
ag10
ag3
ag6
ag6
ag4
ag4
ag4
ag6
aa(lp401
g14
ag14
ag14
ag14
ag4
aa(lp402
g12
ag12
ag10
ag6
ag6
ag6
ag6
ag4
ag4
aa(lp403
g10
ag10
ag10
ag10
ag4
ag4
ag6
aa(lp404
g30
ag30
ag3
ag4
ag4
ag4
aa(lp405
g9
ag9
ag9
ag4
aa(lp406
g14
ag4
ag4
ag4
ag4
ag6
ag15
ag15
aa(lp407
g9
ag9
ag9
ag9
ag2
ag2
ag4
ag4
aa(lp408
g3
ag3
ag3
ag4
ag4
ag4
ag4
aa(lp409
g9
ag9
ag9
ag9
ag9
ag30
ag4
ag4
ag4
aa(lp410
g30
ag30
ag3
ag3
ag3
ag4
ag4
ag4
ag4
ag4
ag4
ag4
ag4
ag4
ag4
ag4
ag4
ag4
ag4
ag4
ag15
aa(lp411
g22
ag6
ag6
ag6
ag6
ag6
ag6
ag6
ag6
ag6
ag4
ag4
ag4
aa(lp412
g9
ag30
ag30
ag30
ag6
ag4
ag4
ag15
aa(lp413
g2
ag2
ag3
ag3
ag4
ag4
ag4
ag4
ag4
ag4
ag4
ag6
ag6
ag6
aa(lp414
g9
ag9
ag9
ag9
ag9
ag9
ag11
ag4
ag4
ag4
ag4
ag4
ag6
ag6
ag6
aa(lp415
g9
ag3
ag3
ag3
ag6
ag6
ag6
ag6
ag4
ag4
ag4
ag4
ag4
ag4
ag15
aa(lp416
g9
ag9
ag9
ag9
ag9
ag4
ag4
ag6
aa(lp417
g9
ag9
ag3
ag6
ag6
ag4
aa(lp418
g10
ag10
ag3
ag3
ag4
ag4
aa(lp419
g9
ag9
ag9
ag9
ag9
ag9
ag3
ag4
aa(lp420
g3
ag3
ag6
ag6
ag6
ag6
ag6
ag6
ag4
aa(lp421
g9
ag10
ag10
ag3
ag4
ag4
ag4
ag15
aa(lp422
g9
ag9
ag9
ag9
ag9
ag4
aa(lp423
g30
ag30
ag30
ag4
aa(lp424
g9
ag9
ag9
ag9
ag12
ag4
aa(lp425
g12
ag12
ag12
ag12
ag12
ag4
ag4
ag4
ag4
aa(lp426
g9
ag9
ag9
ag9
ag9
ag4
ag4
ag4
ag4
aa(lp427
g6
ag6
ag4
ag4
ag4
ag4
aa(lp428
g30
ag3
ag3
ag6
ag4
ag4
ag15
aa(lp429
g9
ag9
ag9
ag9
ag9
ag22
ag4
ag4
ag4
aa(lp430
g9
ag9
ag9
ag9
ag4
aa(lp431
g9
ag9
ag10
ag30
ag12
ag12
ag3
ag6
ag6
ag6
ag4
ag4
ag4
ag4
ag4
ag4
ag15
ag15
aa(lp432
g46
aa(lp433
g12
ag3
ag6
ag6
ag6
ag6
ag6
ag4
aa(lp434
g30
ag3
ag3
ag6
ag6
ag6
ag4
ag4
ag4
ag4
ag4
ag4
ag6
ag6
ag6
ag6
ag6
ag15
aa(lp435
g46
ag10
ag30
ag30
ag6
ag6
ag6
ag4
ag4
aa(lp436
g46
ag14
ag14
ag14
ag22
ag22
ag11
ag4
ag4
ag4
ag4
ag4
ag4
ag4
aa(lp437
g46
ag30
ag6
ag6
ag6
ag4
ag4
ag4
ag6
ag6
aa(lp438
g2
ag6
ag4
aa(lp439
g9
ag9
ag9
ag9
ag12
ag12
ag6
ag4
ag4
ag15
aa(lp440
g2
ag2
ag2
ag2
ag22
ag22
ag4
aa(lp441
g14
ag12
ag12
ag4
ag6
aa(lp442
g46
ag30
ag30
ag30
ag30
ag30
ag3
ag4
aa(lp443
g3
ag3
ag4
ag6
ag6
ag6
ag6
aa(lp444
g9
ag9
ag9
ag9
ag9
ag6
ag6
ag4
ag4
ag4
aa(lp445
g9
ag12
ag12
ag12
ag12
ag12
ag4
ag4
ag4
ag4
ag4
ag15
ag15
ag15
aa(lp446
g4
ag4
aa(lp447
g9
ag9
ag9
ag9
ag9
ag9
ag9
ag30
ag30
ag4
ag4
ag4
ag4
ag4
ag4
ag4
ag4
ag4
ag4
aa(lp448
g14
ag14
ag14
ag14
ag6
ag6
ag4
ag4
ag4
ag4
ag4
ag4
aa(lp449
g4
ag4
aa(lp450
g30
ag4
ag4
aa(lp451
g46
ag14
ag14
ag14
ag14
ag14
ag6
ag6
ag6
ag4
ag4
ag4
ag4
ag4
aa(lp452
g9
ag9
ag9
ag9
ag9
ag9
ag9
ag4
aa(lp453
g10
ag10
ag10
ag10
ag10
ag4
aa(lp454
g9
ag9
ag9
ag6
ag6
ag6
ag6
ag6
ag6
ag4
ag4
ag4
ag4
ag4
ag4
ag4
ag4
ag4
ag15
ag15
aa(lp455
g46
ag3
ag3
ag6
aa(lp456
g46
ag14
ag14
ag6
ag6
aa(lp457
g14
ag14
ag14
ag14
ag30
ag3
ag6
ag6
ag6
ag6
ag6
ag4
ag4
ag4
ag4
ag4
aa(lp458
g9
ag9
ag4
aa(lp459
g4
aa(lp460
g14
ag14
ag14
ag11
ag11
ag6
ag4
aa(lp461
g9
ag9
ag9
ag9
ag4
ag4
ag4
ag4
ag4
aa(lp462
g46
ag10
ag10
ag6
ag4
ag4
ag4
aa(lp463
g11
ag11
ag12
ag4
ag4
aa(lp464
g9
ag9
ag9
ag9
ag9
ag4
ag4
ag4
ag4
ag6
ag6
aa(lp465
g6
ag4
aa(lp466
g9
ag9
ag9
ag9
ag9
ag9
ag6
ag6
ag4
ag4
ag4
aa(lp467
g46
ag14
ag14
ag14
ag12
ag12
ag4
aa(lp468
g11
ag11
ag11
ag11
ag4
ag4
ag4
ag4
ag15
aa(lp469
g10
ag10
ag10
ag2
ag30
ag4
ag4
ag4
aa(lp470
g10
ag10
ag10
ag3
ag6
ag6
ag4
ag4
ag4
ag4
ag4
ag4
ag4
ag4
aa(lp471
g2
ag6
ag6
ag6
ag4
ag4
ag4
aa(lp472
g9
ag9
ag9
ag9
ag9
ag3
ag4
aa(lp473
g9
ag9
ag9
ag12
ag12
ag12
ag3
ag3
ag4
ag4
ag4
ag4
ag4
ag15
ag15
ag15
aa(lp474
g14
ag10
ag4
ag4
ag4
ag4
aa(lp475
g9
ag9
ag9
ag9
ag9
ag3
ag4
ag4
ag4
aa(lp476
g11
ag11
ag11
ag11
ag11
ag22
ag4
ag4
aa(lp477
g9
ag9
ag3
ag6
ag6
ag4
ag4
ag4
ag4
aa(lp478
g30
ag22
ag22
ag14
ag3
ag4
ag4
ag4
ag4
ag6
aa(lp479
g9
ag9
ag9
ag3
ag4
ag6
ag6
aa(lp480
g10
ag6
ag6
ag6
ag6
ag6
ag6
ag6
ag6
ag4
ag4
ag4
ag4
ag4
aa(lp481
g22
ag22
ag22
ag12
ag12
ag12
ag3
ag3
ag4
ag15
ag15
aa(lp482
g9
ag2
ag14
ag14
ag14
ag14
ag6
ag4
ag4
ag4
ag4
ag4
ag4
aa(lp483
g10
ag10
ag10
ag10
ag10
ag10
ag10
ag10
ag10
ag3
ag4
ag4
ag4
aa(lp484
g9
ag3
ag3
ag6
ag4
ag4
ag4
ag4
ag4
ag4
ag4
ag4
ag4
ag4
ag15
ag15
aa(lp485
g9
ag9
ag9
ag9
ag9
ag2
ag3
ag4
aa(lp486
g3
ag6
ag6
ag6
ag4
ag4
ag4
ag4
aa(lp487
g46
ag10
ag3
ag6
ag6
ag6
ag6
ag6
ag4
ag4
ag4
ag4
ag4
ag4
aa(lp488
g46
ag14
ag14
ag3
ag3
ag4
aa(lp489
g10
ag10
ag10
ag10
ag10
ag3
ag6
ag4
ag6
ag6
aa(lp490
g2
ag2
ag12
ag4
ag4
ag4
ag15
aa(lp491
g9
ag9
ag9
ag9
ag9
ag9
ag4
ag4
ag4
aa(lp492
g6
ag6
ag6
ag6
ag6
ag6
ag4
ag4
ag4
ag4
aa(lp493
g46
ag10
ag10
aa(lp494
g14
ag14
ag14
ag14
ag14
ag22
ag4
ag4
ag4
aa(lp495
g30
ag30
ag30
ag22
ag4
ag4
ag4
ag15
aa(lp496
g46
ag30
ag30
ag6
ag6
ag6
ag6
aa(lp497
g22
ag6
ag6
ag6
ag6
ag6
ag4
ag4
ag4
ag4
aa(lp498
g46
ag10
ag10
ag10
ag10
ag10
ag3
ag3
ag4
ag4
ag4
ag4
ag4
ag4
ag4
aa(lp499
g9
ag9
ag22
ag22
ag22
ag2
ag2
ag2
ag3
ag6
ag6
ag4
ag4
ag4
ag4
ag4
aa(lp500
g3
ag6
ag6
ag6
ag6
ag6
ag6
ag4
ag4
aa(lp501
g46
ag10
ag10
ag10
ag6
ag6
ag4
aa(lp502
g6
ag4
aa(lp503
g2
ag2
ag4
ag4
ag4
aa(lp504
g9
ag9
ag9
ag2
ag2
ag4
aa(lp505
g30
ag3
ag4
ag4
ag4
ag4
ag4
ag4
ag4
ag4
ag4
aa(lp506
g9
ag9
ag9
ag9
ag9
ag3
ag6
ag4
ag4
ag4
aa(lp507
g10
ag10
ag10
ag3
ag4
ag4
aa(lp508
g3
ag3
ag6
ag6
ag4
ag6
aa(lp509
g46
ag14
ag14
ag3
ag6
ag4
aa(lp510
g9
ag9
ag9
ag4
ag4
aa(lp511
g9
ag9
ag9
ag9
ag9
ag11
ag4
ag6
ag15
ag15
aa(lp512
g46
ag10
ag10
ag6
ag4
ag4
ag4
ag4
ag4
ag4
aa(lp513
g14
ag14
ag10
ag3
ag6
ag6
ag6
ag6
ag6
ag6
ag6
ag4
ag4
ag4
ag4
ag4
ag4
ag6
aa(lp514
g3
ag3
ag3
ag6
ag6
ag6
ag6
ag4
ag4
ag4
ag4
ag4
ag4
ag4
ag4
ag4
ag4
ag4
aa(lp515
g9
ag9
ag9
ag9
ag9
ag9
ag9
ag3
ag4
aa(lp516
g9
ag9
ag9
ag9
ag9
ag3
ag4
aa(lp517
g46
ag10
ag3
ag6
ag6
ag4
ag4
aa(lp518
g30
ag2
ag2
ag3
ag6
ag6
ag4
aa(lp519
g9
ag22
ag3
ag6
ag6
ag6
ag6
ag6
ag6
ag6
ag4
ag4
ag4
ag4
ag4
ag4
ag4
ag4
ag4
ag4
ag4
ag4
ag15
ag15
aa(lp520
g9
ag9
ag9
ag9
ag9
ag11
ag3
ag4
ag4
aa(lp521
g3
ag6
ag6
ag6
ag6
ag6
ag4
aa(lp522
g9
ag9
ag9
ag9
ag9
ag9
ag9
ag3
ag4
aa(lp523
g9
ag30
ag2
ag2
ag2
ag3
ag4
ag4
ag4
aa(lp524
g9
ag9
ag10
ag10
ag3
ag3
ag3
ag4
ag4
ag4
ag4
ag4
ag4
ag4
ag4
ag15
ag15
ag15
aa(lp525
g9
ag9
ag9
ag9
ag9
ag30
ag6
ag6
ag4
ag4
ag4
aa(lp526
g30
ag6
ag6
ag6
ag4
ag4
ag4
aa(lp527
g4
aa(lp528
g30
ag30
ag30
ag3
ag6
ag6
ag4
ag4
ag4
ag4
ag6
aa(lp529
g9
ag3
ag6
ag6
ag6
ag4
aa(lp530
g46
ag2
ag4
aa(lp531
g9
ag9
ag9
ag9
ag12
ag4
ag6
ag6
aa(lp532
g12
ag14
ag14
ag30
ag30
ag4
ag4
ag4
ag6
ag6
ag6
aa(lp533
g6
ag6
ag6
ag6
ag6
ag6
ag6
ag4
ag4
aa(lp534
g11
ag11
ag11
ag3
ag4
ag4
aa(lp535
g9
ag9
ag9
ag9
ag9
ag6
ag6
ag4
ag4
ag4
aa(lp536
g4
aa(lp537
g46
ag11
ag11
ag6
ag4
aa(lp538
g46
ag10
ag10
ag10
ag6
ag4
aa(lp539
g9
ag9
ag9
ag2
ag2
ag30
ag4
ag4
ag4
ag4
ag6
ag6
ag15
aa(lp540
g11
ag6
ag6
ag6
ag4
ag4
ag4
ag4
ag6
aa(lp541
g4
ag4
aa(lp542
g4
ag4
aa(lp543
g46
ag2
ag2
ag2
ag2
ag2
ag3
ag4
aa(lp544
g22
ag22
ag11
ag11
ag11
ag11
ag12
ag4
ag15
aa(lp545
g46
ag22
ag22
ag4
aa(lp546
g9
ag9
ag9
ag9
ag9
ag9
ag4
ag4
ag6
ag6
aa(lp547
g30
ag30
ag30
ag4
ag4
aa(lp548
g22
ag22
ag11
ag11
ag3
ag3
ag6
ag4
ag4
aa(lp549
g9
ag9
ag9
ag2
ag2
ag4
ag4
aa(lp550
g10
ag10
ag10
ag10
ag2
ag14
ag4
aa(lp551
g30
ag30
ag30
ag30
ag30
ag30
ag4
aa(lp552
g9
ag9
ag9
ag9
ag9
ag9
ag30
ag3
ag4
ag4
ag4
ag6
ag6
ag15
aa(lp553
g10
ag2
ag2
ag30
ag3
ag6
ag6
ag4
ag4
ag4
ag4
ag15
aa(lp554
g11
ag11
ag11
ag4
aa(lp555
g6
ag4
ag4
ag4
ag6
ag6
aa(lp556
g9
ag9
ag9
ag9
ag9
ag9
ag9
ag9
ag9
ag9
ag4
ag4
ag4
ag4
aa(lp557
g10
ag6
ag52
ag4
aa(lp558
g11
ag4
ag4
aa(lp559
g30
ag30
ag30
ag30
ag11
ag11
ag3
ag6
ag6
ag4
ag6
aa(lp560
g9
ag9
ag9
ag9
ag12
ag4
aa(lp561
g3
ag3
ag3
ag6
ag6
ag6
ag6
ag4
ag4
ag4
ag4
ag4
ag4
ag4
ag4
ag4
ag4
ag4
aa(lp562
g9
ag9
ag9
ag9
ag9
ag9
ag9
ag2
ag3
ag6
ag4
ag4
ag4
ag6
ag6
aa(lp563
g9
ag9
ag3
ag6
ag6
ag4
ag4
ag4
ag4
ag4
aa(lp564
g3
ag6
ag6
ag6
ag6
ag6
ag4
ag4
aa(lp565
g46
ag4
aa(lp566
g9
ag9
ag9
ag9
ag9
ag9
ag4
ag4
aa(lp567
g9
ag9
ag9
ag12
ag12
ag12
ag30
ag3
ag4
ag4
ag4
ag4
ag15
ag15
ag15
aa(lp568
g12
ag12
ag12
ag12
ag12
ag4
ag4
aa(lp569
g9
ag9
ag9
ag3
ag6
ag6
ag4
ag4
ag4
ag4
ag4
ag15
ag15
aa(lp570
g3
ag3
ag6
ag4
ag4
ag4
ag4
ag15
aa(lp571
g9
ag3
ag3
ag6
ag6
ag4
ag4
ag4
ag6
ag15
ag15
ag15
aa(lp572
g9
ag30
ag30
ag30
ag10
ag10
ag6
ag6
ag6
ag4
ag4
ag4
aa(lp573
g46
ag3
ag6
ag4
ag4
ag4
aa(lp574
g12
ag11
ag11
ag11
ag4
ag4
ag15
aa(lp575
g10
ag10
ag3
ag3
ag4
ag4
ag4
ag4
ag4
ag4
ag4
ag4
aa(lp576
g30
ag4
ag4
ag4
aa(lp577
g11
ag11
ag11
ag11
ag11
ag11
ag4
ag4
aa(lp578
g11
ag11
ag11
ag11
ag12
ag4
aa(lp579
g9
ag10
ag3
ag4
ag4
ag15
ag15
aa(lp580
g46
ag6
ag6
ag6
ag4
ag4
aa(lp581
g4
aa(lp582
g4
ag4
ag15
aa(lp583
g6
ag4
aa(lp584
g46
ag14
ag12
ag12
ag3
ag6
ag6
ag6
ag6
aa(lp585
g10
ag10
ag4
ag4
ag4
ag4
ag4
ag4
aa(lp586
g9
ag9
ag9
ag9
ag9
ag9
ag9
ag4
ag4
aa(lp587
g9
ag9
ag3
ag3
ag4
ag4
ag4
ag4
ag4
ag4
ag6
ag15
ag15
ag15
aa(lp588
g4
aa(lp589
g30
ag3
ag3
ag4
ag4
ag4
ag6
ag15
aa(lp590
g9
ag9
ag11
ag6
ag4
aa(lp591
g22
ag22
ag4
ag4
ag4
aa(lp592
g9
ag9
ag9
ag4
ag4
ag4
ag6
ag15
aa(lp593
g9
ag22
ag22
ag10
ag10
ag4
aa(lp594
g9
ag9
ag9
ag9
ag9
ag9
ag4
aa(lp595
g9
ag9
ag22
ag22
ag12
ag12
ag3
ag6
ag4
ag4
ag4
aa(lp596
g9
ag9
ag9
ag9
ag9
ag22
ag4
aa(lp597
g9
ag9
ag3
ag6
ag6
ag6
ag6
ag6
ag6
ag52
ag4
ag4
ag4
ag6
ag15
aa(lp598
g9
ag2
ag2
ag10
ag10
ag3
ag3
ag6
ag4
ag4
ag4
ag4
ag6
ag6
aa(lp599
g9
ag14
ag14
ag4
ag4
aa(lp600
g10
ag10
ag10
ag2
ag10
ag4
ag4
aa(lp601
g14
ag2
ag2
ag2
ag3
ag4
ag4
aa(lp602
g3
ag6
ag6
ag4
ag4
ag6
ag6
aa(lp603
g9
ag9
ag9
ag9
ag10
ag3
ag4
aa(lp604
g46
ag10
ag6
aa(lp605
g9
ag4
ag6
ag6
ag6
ag6
ag6
aa(lp606
g30
ag3
ag3
ag6
ag6
ag6
ag6
ag6
ag6
ag6
ag4
ag4
aa(lp607
g9
ag9
ag9
ag9
ag9
ag9
ag6
ag6
ag4
ag4
ag4
ag4
ag6
aa(lp608
g3
ag6
ag6
ag6
ag6
ag6
ag6
ag4
ag4
ag4
ag4
ag4
aa(lp609
g3
ag3
ag6
ag6
ag6
ag6
ag4
ag4
aa(lp610
g4
aa(lp611
g11
ag11
ag3
ag3
ag6
ag6
ag6
ag6
ag6
ag6
ag4
ag4
aa(lp612
g9
ag9
ag9
ag9
ag22
ag11
ag22
ag10
ag22
ag22
ag22
ag4
ag4
ag4
ag4
ag4
ag4
ag4
ag15
aa(lp613
g10
ag3
ag6
ag6
ag6
ag6
ag4
ag4
aa(lp614
g9
ag9
ag12
ag12
ag4
aa(lp615
g46
ag14
ag6
ag4
aa(lp616
g46
ag12
ag12
ag6
ag6
ag6
ag6
ag6
ag4
ag4
ag4
ag4
aa(lp617
g9
ag9
ag9
ag9
ag4
ag4
ag4
ag4
ag6
aa(lp618
g46
ag11
ag22
ag11
ag4
aa(lp619
g14
ag3
ag3
ag6
ag6
ag6
ag6
ag4
ag4
ag4
ag15
aa(lp620
g9
ag9
ag3
ag3
ag3
ag6
ag4
ag4
ag4
ag4
ag4
ag4
ag4
ag4
ag4
ag15
ag15
ag15
aa(lp621
g9
ag12
ag12
ag12
ag12
ag12
ag12
ag4
ag4
ag4
ag12
aa(lp622
g30
ag30
ag30
ag30
ag30
ag6
ag6
ag6
ag6
ag6
ag6
ag4
aa(lp623
g30
ag30
ag11
ag10
ag10
ag3
ag4
ag4
aa(lp624
g3
ag3
ag6
ag6
ag6
ag4
ag4
ag4
ag4
ag4
ag4
ag4
ag4
ag4
aa(lp625
g12
ag12
ag12
ag12
ag3
ag6
ag4
ag4
ag4
ag6
aa(lp626
g10
ag10
ag10
ag6
ag6
ag4
ag4
ag4
ag4
aa(lp627
g30
ag30
ag11
ag11
ag6
ag4
ag4
ag4
ag4
aa(lp628
g10
ag4
ag15
ag15
aa(lp629
g10
ag10
ag10
ag10
ag12
ag2
ag10
ag4
ag4
aa(lp630
g46
aa(lp631
g9
ag3
ag3
ag6
ag6
ag4
ag4
ag4
ag4
ag4
ag4
ag4
ag4
ag4
ag15
ag15
ag15
aa(lp632
g14
ag14
ag4
ag4
aa(lp633
g6
ag6
ag6
ag4
aa(lp634
g9
ag9
ag9
ag9
ag9
ag4
ag4
aa(lp635
g12
ag12
ag12
ag12
ag12
ag12
ag6
ag4
aa(lp636
g9
ag9
ag9
ag9
ag9
ag4
aa(lp637
g14
ag3
ag6
ag6
ag6
ag4
aa(lp638
g46
ag11
ag11
ag11
ag11
ag11
ag11
ag4
ag4
aa(lp639
g3
ag6
ag6
ag6
ag6
ag6
ag6
ag4
ag4
ag4
aa(lp640
g10
ag4
ag4
ag4
aa(lp641
g22
ag22
ag12
ag3
ag6
ag6
ag6
ag6
ag6
ag6
ag6
ag6
ag4
ag4
ag4
ag6
aa(lp642
g9
ag9
ag9
ag9
ag9
ag9
ag9
ag9
ag9
ag2
ag2
ag2
ag6
ag4
ag4
aa(lp643
g12
ag12
ag12
ag6
ag6
ag6
ag4
ag6
aa(lp644
g30
ag3
ag3
ag3
ag6
ag6
ag6
ag4
ag4
ag4
ag15
ag15
ag15
aa(lp645
g9
ag9
ag9
ag9
ag9
ag11
ag11
ag12
ag4
ag4
ag4
ag6
ag15
aa(lp646
g9
ag9
ag6
ag6
ag4
aa(lp647
g46
ag10
ag10
ag3
ag3
ag3
ag4
ag4
ag4
ag4
ag4
ag4
ag4
aa(lp648
g30
ag3
ag6
ag6
ag6
ag4
ag4
ag4
aa(lp649
g9
ag9
ag9
ag9
ag9
ag9
ag4
aa(lp650
g9
ag9
ag9
ag3
ag4
ag4
ag4
aa(lp651
g46
ag22
ag22
ag22
ag22
ag22
ag22
ag4
aa(lp652
g14
ag2
ag11
ag6
ag4
ag4
aa(lp653
g30
ag30
ag30
ag30
ag30
ag4
aa(lp654
g10
ag10
ag10
ag6
ag4
ag4
ag4
ag4
ag4
ag4
ag4
ag4
ag4
aa(lp655
g9
ag9
ag9
ag4
aa(lp656
g10
ag10
ag10
ag10
ag3
ag4
ag4
ag4
aa(lp657
g9
ag9
ag9
ag9
ag9
ag9
ag2
ag4
ag4
ag4
ag4
ag6
ag6
aa(lp658
g9
ag9
ag9
ag9
ag9
ag9
ag9
ag9
ag3
ag6
ag6
ag4
ag4
ag4
ag4
ag4
aa(lp659
g46
ag14
ag14
ag10
ag10
ag3
ag4
ag4
aa(lp660
g9
ag9
ag9
ag9
ag9
ag9
ag4
ag4
aa(lp661
g22
ag22
ag22
ag22
ag12
ag12
ag6
ag6
ag6
ag6
ag4
ag4
ag4
ag4
aa(lp662
g9
ag9
ag9
ag9
ag9
ag4
ag4
ag4
ag6
ag6
ag6
aa(lp663
g22
ag6
ag6
ag6
ag6
ag6
ag4
aa(lp664
g3
ag6
ag6
ag6
ag4
ag4
ag4
ag6
ag6
ag6
aa(lp665
g22
ag3
ag6
ag6
ag6
ag6
ag6
ag4
aa(lp666
g14
ag14
ag14
ag3
ag6
ag6
ag6
ag6
ag6
ag6
ag4
ag4
aa(lp667
g9
ag22
ag22
ag22
ag10
ag10
ag10
ag10
ag10
ag3
ag6
ag4
ag4
ag4
ag4
ag4
ag15
ag15
aa(lp668
g10
ag6
ag4
ag4
ag4
aa(lp669
g30
ag30
ag30
ag30
ag30
ag4
aa(lp670
g46
ag22
aa(lp671
g9
ag9
ag9
ag11
ag11
ag22
ag2
ag2
ag4
aa(lp672
g46
ag10
ag10
ag4
ag6
ag6
ag4
aa(lp673
g46
ag2
ag4
aa(lp674
g4
ag4
ag4
ag4
aa(lp675
g10
ag10
ag10
ag10
ag4
ag4
aa(lp676
g46
ag6
ag6
ag4
ag6
aa(lp677
g46
ag30
ag30
ag30
ag30
ag30
ag30
ag3
ag4
ag4
aa(lp678
g46
ag11
ag11
ag11
ag3
ag4
aa(lp679
g46
ag30
ag30
ag30
ag10
ag30
ag30
ag30
ag4
ag4
aa(lp680
g22
ag22
ag22
ag22
ag22
ag4
ag4
aa(lp681
g9
ag12
ag12
ag12
ag12
ag12
ag6
ag4
ag4
ag4
ag4
ag4
aa(lp682
g46
ag3
ag6
ag6
ag6
ag6
ag6
ag6
aa(lp683
g9
ag9
ag9
ag9
ag9
ag12
ag12
ag12
ag12
ag12
ag4
ag4
aa(lp684
g4
aa(lp685
g3
ag3
ag6
ag6
ag6
ag4
ag4
ag4
ag4
ag4
ag4
ag4
ag4
ag4
ag4
ag4
aa(lp686
g2
ag2
ag2
ag2
ag4
ag4
aa(lp687
g30
ag30
ag4
ag4
aa(lp688
g46
ag30
ag30
ag4
aa(lp689
g4
aa(lp690
g46
ag30
ag30
ag30
ag30
ag4
ag4
aa(lp691
g30
ag3
ag6
ag4
ag4
ag4
ag4
ag4
ag6
ag6
ag6
ag6
ag6
aa(lp692
g2
ag2
ag4
ag4
ag4
aa(lp693
g3
ag6
ag4
ag6
ag6
ag6
ag6
aa(lp694
g46
ag22
ag6
ag6
ag6
ag4
ag4
ag4
ag4
ag4
aa(lp695
g6
ag6
ag6
ag6
ag6
ag6
ag4
aa(lp696
g14
ag4
ag4
ag4
aa(lp697
g3
ag6
ag6
ag6
ag6
ag6
ag4
ag4
ag4
aa(lp698
g14
ag4
aa(lp699
g10
ag10
ag10
ag10
ag3
ag4
ag4
ag4
aa(lp700
g9
ag9
ag9
ag9
ag3
ag3
ag3
ag6
ag6
ag4
ag4
ag4
ag4
aa(lp701
g30
ag30
ag30
ag4
aa(lp702
g3
ag6
ag6
ag6
ag6
ag6
ag4
ag4
ag4
ag4
aa(lp703
g46
ag10
ag10
ag10
ag10
ag11
ag11
ag4
aa(lp704
g6
ag4
aa(lp705
g30
ag30
ag30
ag4
ag4
aa(lp706
g4
ag4
ag4
ag4
ag4
aa(lp707
g22
ag22
ag6
ag6
ag6
ag6
ag6
ag4
ag4
ag4
ag4
ag4
ag4
ag4
ag4
ag4
ag4
ag4
ag4
aa(lp708
g9
ag10
ag10
ag6
ag6
ag4
ag4
ag4
ag4
aa(lp709
g9
ag9
ag3
ag6
ag6
ag6
ag4
ag4
ag4
ag4
ag4
ag4
ag4
aa(lp710
g46
ag22
ag22
ag22
ag22
ag4
aa(lp711
g9
ag9
ag9
ag9
ag9
ag3
ag52
ag4
ag4
ag4
ag6
aa(lp712
g9
ag9
ag9
ag9
ag9
ag3
ag6
ag6
ag6
ag6
ag6
ag6
ag4
ag4
ag4
ag4
ag4
ag6
ag15
aa(lp713
g12
ag12
ag12
ag12
ag12
ag12
ag3
ag4
ag4
aa(lp714
g12
ag12
ag12
ag4
ag4
aa(lp715
g4
ag4
aa(lp716
g9
ag9
ag9
ag9
ag9
ag3
ag6
ag4
aa(lp717
g3
ag4
ag4
ag4
ag4
ag4
aa(lp718
g12
ag12
ag12
ag4
aa(lp719
g4
aa(lp720
g46
ag10
ag10
aa(lp721
g6
ag6
ag4
aa(lp722
g46
ag3
ag6
ag6
ag6
ag6
ag4
ag6
ag6
ag6
aa(lp723
g9
ag9
ag9
ag9
ag10
ag10
ag10
ag30
ag4
aa(lp724
g2
ag2
ag4
ag4
aa(lp725
g10
ag10
ag6
ag6
ag6
ag6
ag6
ag4
ag4
aa(lp726
g9
ag10
ag10
ag10
ag10
ag10
ag12
ag4
aa(lp727
g9
ag9
ag9
ag4
aa(lp728
g46
ag6
ag4
ag4
ag4
aa(lp729
g9
ag2
ag3
ag4
ag4
ag4
ag4
ag4
ag4
ag15
aa(lp730
g9
ag9
ag9
ag4
aa(lp731
g46
ag46
ag2
ag2
ag2
ag2
ag2
ag3
ag4
ag4
aa(lp732
g11
ag11
ag11
ag3
ag4
ag6
ag6
aa(lp733
g2
ag2
ag2
ag2
ag3
ag4
ag4
ag4
ag15
aa(lp734
g30
ag30
ag4
ag4
aa(lp735
g9
ag9
ag9
ag4
aa(lp736
g9
ag2
ag2
ag3
ag3
ag6
ag6
ag4
ag4
ag4
ag6
ag15
ag15
aa(lp737
g10
ag6
ag6
ag4
aa(lp738
g9
ag9
ag9
ag9
ag9
ag9
ag9
ag4
aa(lp739
g30
ag30
ag30
ag30
ag30
ag30
ag4
ag4
ag4
aa(lp740
g2
ag2
ag2
ag4
ag4
aa(lp741
g6
ag4
aa(lp742
g30
ag30
ag30
ag30
ag22
ag22
ag3
ag6
ag4
ag4
ag4
ag4
ag4
aa(lp743
g4
aa(lp744
g12
ag12
ag2
ag3
ag6
ag4
aa(lp745
g46
aa(lp746
g9
ag9
ag3
ag6
ag4
ag4
ag4
ag4
ag4
ag4
ag4
ag4
ag4
ag4
ag4
aa(lp747
g22
ag22
ag22
ag22
ag22
ag22
ag3
ag4
ag4
ag4
ag4
aa(lp748
g9
ag4
aa(lp749
g9
ag9
ag9
ag9
ag9
ag4
ag6
aa(lp750
g30
ag30
ag30
ag22
ag4
ag4
aa(lp751
g46
ag30
ag10
ag10
ag10
ag10
ag6
aa(lp752
g22
ag22
ag22
ag22
ag22
ag30
ag4
aa(lp753
g10
ag4
ag6
ag6
ag6
aa(lp754
g46
ag14
ag14
ag3
ag6
ag6
aa(lp755
g30
ag30
ag4
ag4
aa(lp756
g46
ag2
ag10
ag6
ag6
ag6
ag6
aa(lp757
g6
ag6
ag6
ag6
ag6
ag4
ag4
ag6
aa(lp758
g9
ag9
ag9
ag9
ag9
ag30
ag30
ag4
aa(lp759
g46
ag3
ag6
aa(lp760
g46
ag4
ag10
ag30
ag10
ag10
ag3
ag6
ag4
ag4
ag4
ag4
ag4
ag4
ag4
ag4
ag4
aa(lp761
g2
ag2
ag2
ag4
aa(lp762
g2
ag2
ag2
ag4
ag4
aa(lp763
g46
ag10
ag10
ag10
ag10
ag10
ag10
ag4
aa(lp764
g9
ag9
ag9
ag9
ag9
ag9
ag9
ag9
ag4
ag4
aa(lp765
g9
ag9
ag9
ag9
ag9
ag4
ag4
aa(lp766
g9
ag9
ag9
ag9
ag9
ag9
ag3
ag3
ag6
ag6
ag6
ag6
ag6
ag4
ag4
ag4
ag4
ag4
ag4
ag4
ag4
ag15
ag15
aa(lp767
g12
ag12
ag12
ag2
ag4
ag4
aa(lp768
g10
ag4
ag6
ag6
aa(lp769
g46
ag12
ag12
ag12
aa(lp770
g10
ag10
ag10
ag10
ag3
ag3
ag6
ag6
ag6
ag6
ag4
ag4
ag4
ag4
aa(lp771
g11
ag11
ag11
ag4
ag4
ag4
ag6
ag15
aa(lp772
g11
ag11
ag11
ag4
ag4
ag4
aa(lp773
g14
ag14
ag3
ag3
ag4
ag15
ag15
ag15
aa(lp774
g12
ag12
ag4
ag4
ag4
ag6
aa(lp775
g9
ag9
ag9
ag22
ag22
ag22
ag14
ag14
ag3
ag6
ag4
ag4
ag4
ag15
ag15
ag15
aa(lp776
g46
aa(lp777
g46
ag30
aa(lp778
g46
ag22
ag22
ag4
aa(lp779
g46
ag4
ag6
ag6
ag6
aa(lp780
g9
ag2
ag2
ag6
ag4
ag15
ag15
aa(lp781
g11
ag11
ag4
ag4
ag4
aa(lp782
g9
ag9
ag9
ag9
ag9
ag4
ag4
aa(lp783
g9
ag9
ag9
ag2
ag4
ag4
aa(lp784
g9
ag30
ag30
ag30
ag30
ag30
ag30
ag3
ag3
ag4
ag4
ag4
ag4
ag4
ag4
ag4
aa(lp785
g9
ag9
ag9
ag6
ag6
ag4
ag4
ag4
ag4
ag4
ag15
ag15
ag15
aa(lp786
g4
ag4
aa(lp787
g9
ag9
ag4
aa(lp788
g46
ag12
ag4
aa(lp789
g22
ag22
ag22
ag22
ag4
aa(lp790
g4
ag4
ag4
ag4
ag4
aa(lp791
g10
ag3
ag6
ag6
ag6
ag6
ag6
ag4
ag4
ag4
ag4
ag6
ag6
ag6
ag6
ag6
aa(lp792
g9
ag9
ag9
ag9
ag9
ag3
ag3
ag4
ag4
ag4
ag6
ag6
ag15
aa(lp793
g11
ag3
ag6
ag6
ag6
ag6
ag6
ag6
ag4
aa(lp794
g4
ag4
ag4
aa(lp795
g9
ag12
ag6
ag6
ag6
ag4
ag15
ag15
aa(lp796
g10
ag3
ag3
ag3
ag6
ag6
ag4
ag4
ag4
ag4
ag4
ag4
ag4
ag4
ag4
ag4
ag15
ag15
ag15
ag15
aa(lp797
g11
ag11
ag11
ag11
ag4
aa(lp798
g9
ag9
ag9
ag9
ag9
ag30
ag2
ag2
ag4
ag4
aa(lp799
g46
ag12
ag12
ag12
ag12
ag6
ag6
ag6
ag4
aa(lp800
g12
ag12
ag12
ag12
ag3
ag4
ag4
ag4
aa(lp801
g12
ag12
ag12
ag12
ag12
ag12
ag4
ag4
ag4
aa(lp802
g46
ag3
ag6
ag6
ag4
ag4
ag4
aa(lp803
g3
ag6
ag6
ag6
ag6
ag6
ag6
ag4
ag4
aa(lp804
g6
ag6
ag6
ag6
ag6
ag4
ag4
aa(lp805
g9
ag9
ag9
ag9
ag9
ag4
ag4
ag4
ag4
aa(lp806
g30
ag30
ag3
ag3
ag6
ag6
ag6
ag6
ag6
ag4
ag4
ag6
ag15
aa(lp807
g30
ag3
ag6
ag6
ag4
ag4
ag4
ag4
ag4
ag4
ag4
aa(lp808
g30
ag6
ag6
ag6
ag6
ag6
ag6
ag6
ag4
ag4
ag4
ag4
ag4
ag4
ag4
aa(lp809
g9
ag10
ag6
ag6
ag6
ag4
aa(lp810
g9
ag9
ag9
ag9
ag9
ag4
ag4
ag4
ag4
aa(lp811
g3
ag6
ag6
ag6
ag4
ag4
ag4
ag4
ag6
aa(lp812
g12
ag3
ag6
ag6
ag6
ag4
ag4
ag4
ag15
ag15
aa(lp813
g30
ag6
ag6
ag6
ag6
ag4
ag4
aa(lp814
g22
ag22
ag22
ag12
ag12
ag14
ag4
ag4
ag4
aa(lp815
g3
ag6
ag6
ag6
ag4
ag4
ag4
ag4
ag4
ag15
aa(lp816
g6
ag6
ag6
ag4
ag4
ag4
ag4
aa(lp817
g46
ag10
ag10
ag10
ag2
aa(lp818
g9
ag14
ag14
ag14
ag14
ag30
ag14
ag6
ag4
ag4
ag4
aa(lp819
g30
ag30
ag30
ag30
ag30
ag4
ag4
ag4
aa(lp820
g6
ag6
ag6
ag6
ag6
ag4
ag4
aa(lp821
g9
ag9
ag9
ag9
ag9
ag9
ag9
ag4
aa(lp822
g30
ag3
ag6
ag6
ag4
ag4
ag4
ag4
ag4
ag4
ag4
ag4
ag4
ag4
ag4
ag4
ag4
ag6
ag15
aa(lp823
g9
ag9
ag22
ag11
ag11
ag11
ag11
ag11
ag11
ag6
ag4
ag4
ag4
ag15
aa(lp824
g9
ag9
ag9
ag9
ag4
aa(lp825
g6
ag6
ag6
ag6
ag6
ag6
ag6
ag4
ag4
ag4
aa(lp826
g4
ag4
ag4
ag4
ag4
ag4
aa(lp827
g3
ag4
ag4
ag4
ag4
ag4
ag6
ag6
aa(lp828
g22
ag22
ag22
ag22
ag12
ag12
ag4
ag4
ag6
aa(lp829
g9
ag9
ag15
ag9
ag9
ag9
ag12
ag12
ag3
ag6
ag6
ag4
ag4
ag4
ag4
ag4
ag4
aa(lp830
g46
ag12
ag12
ag12
ag3
ag4
aa(lp831
g46
ag3
ag6
ag6
ag6
ag6
ag6
ag4
aa(lp832
g9
ag9
ag9
ag6
ag6
ag4
aa(lp833
g9
ag9
ag11
ag6
ag4
ag6
aa(lp834
g9
ag9
ag9
ag9
ag9
ag6
ag4
ag4
ag6
aa(lp835
g2
ag2
ag52
ag52
ag4
aa(lp836
g9
ag9
ag9
ag4
aa(lp837
g4
ag4
ag4
ag4
ag4
ag4
aa(lp838
g46
ag14
ag14
ag14
ag14
ag14
ag14
ag3
ag6
ag4
ag4
ag4
aa(lp839
g14
ag14
ag14
ag14
ag4
ag4
ag4
aa(lp840
g2
ag4
aa(lp841
g4
ag4
ag15
ag15
ag15
aa(lp842
g22
ag22
ag22
ag22
ag22
ag4
ag4
ag4
ag4
aa(lp843
g12
ag12
ag3
ag4
ag4
ag4
ag4
ag4
ag4
aa(lp844
g9
ag4
ag4
ag4
ag4
ag4
ag4
ag4
ag4
ag4
aa(lp845
g3
ag6
ag6
ag6
ag52
ag52
ag4
ag4
ag4
ag4
ag4
ag4
aa(lp846
g2
ag2
ag2
ag2
ag2
ag3
ag4
aa(lp847
g9
ag9
ag9
ag9
ag12
ag12
ag12
ag12
ag3
ag4
ag4
ag4
aa(lp848
g9
ag9
ag9
ag9
ag9
ag4
ag4
ag4
aa(lp849
g10
ag10
ag10
ag10
ag6
ag4
aa(lp850
g30
ag30
ag30
ag30
ag30
ag3
ag6
ag4
ag4
ag6
ag15
aa(lp851
g9
ag14
ag14
ag14
ag14
ag14
ag14
ag14
ag11
ag4
ag4
ag4
aa(lp852
g2
ag2
ag2
ag4
aa(lp853
g12
ag12
ag12
ag4
aa(lp854
g2
ag4
ag4
ag4
aa(lp855
g3
ag6
ag4
ag6
ag6
ag6
aa(lp856
g10
ag10
ag10
ag14
ag14
ag10
ag10
ag4
ag4
ag4
ag15
ag15
aa(lp857
g9
ag30
ag30
ag11
ag3
ag6
ag6
ag6
ag6
ag6
ag4
ag4
ag4
aa(lp858
g10
ag30
ag3
ag6
ag6
ag6
ag6
ag6
ag6
ag4
ag4
ag4
aa(lp859
g9
ag9
ag2
ag2
ag3
ag3
ag6
ag4
ag4
ag4
ag4
ag4
ag4
ag4
ag15
ag15
aa(lp860
g10
ag10
ag10
ag10
ag4
ag6
ag6
aa(lp861
g2
ag2
ag2
ag3
ag4
ag4
aa(lp862
g22
ag10
ag6
ag4
ag4
ag4
ag6
ag6
ag6
ag6
aa(lp863
g10
ag6
ag6
ag6
ag6
ag6
ag4
aa(lp864
g9
ag9
ag3
ag4
ag4
ag4
ag4
aa(lp865
g46
ag30
ag14
ag14
ag14
ag3
ag3
ag6
aa(lp866
g22
ag4
ag15
aa(lp867
g9
ag9
ag9
ag9
ag9
ag22
ag3
ag4
aa(lp868
g46
ag22
ag4
ag4
aa(lp869
g9
ag9
ag9
ag9
ag4
ag4
ag4
aa(lp870
g46
ag30
ag30
aa(lp871
g46
ag30
ag30
ag2
ag30
ag30
ag4
aa(lp872
g6
ag6
ag6
ag4
aa(lp873
g4
aa(lp874
g9
ag22
ag22
ag6
ag4
aa(lp875
g30
ag30
ag30
ag30
ag30
ag4
ag4
ag4
aa(lp876
g4
aa(lp877
g46
ag46
ag46
ag30
ag30
ag30
ag30
aa(lp878
g46
ag30
ag3
ag3
ag6
ag6
ag6
ag6
ag6
aa(lp879
g9
ag6
ag6
ag6
ag4
aa(lp880
g6
ag6
ag6
ag6
ag4
ag4
aa(lp881
g3
ag3
ag6
ag6
ag6
ag6
ag6
ag4
aa(lp882
g12
ag3
ag6
ag6
ag6
ag6
ag4
aa(lp883
g22
ag22
ag22
ag22
ag22
ag22
ag22
ag4
ag4
ag4
aa(lp884
g9
ag9
ag9
ag9
ag4
ag4
aa(lp885
g9
ag30
ag30
ag30
ag30
ag4
ag4
aa(lp886
g2
ag2
ag14
ag12
ag6
ag4
ag4
ag4
aa(lp887
g46
ag3
ag6
ag6
ag6
ag6
ag6
ag4
aa(lp888
g46
ag10
ag10
ag10
ag10
aa(lp889
g4
aa(lp890
g9
ag9
ag9
ag9
ag9
ag3
ag3
ag4
ag4
aa(lp891
g22
ag22
ag22
ag22
ag22
ag22
ag3
ag6
ag4
aa(lp892
g9
ag4
aa(lp893
g46
ag22
ag22
ag22
ag22
ag22
ag3
aa(lp894
g9
ag30
ag30
ag2
ag2
ag3
ag4
ag4
ag9
ag15
ag15
ag15
aa(lp895
g22
ag22
ag22
ag4
aa(lp896
g3
ag3
ag4
ag4
ag4
ag4
ag4
ag4
ag4
aa(lp897
g2
ag2
ag2
ag2
ag3
ag3
ag6
ag6
ag4
ag4
ag4
ag4
ag4
ag4
ag4
aa(lp898
g9
ag2
ag2
ag2
ag2
ag4
aa(lp899
g46
ag2
ag2
ag2
ag4
aa(lp900
g46
ag12
ag12
ag12
ag3
ag6
ag4
aa(lp901
g9
ag9
ag30
ag6
ag4
ag4
ag4
ag4
ag4
ag4
ag4
ag4
ag4
ag4
ag9
aa(lp902
g30
ag30
ag30
ag14
ag14
ag3
ag4
ag4
aa(lp903
g2
ag2
ag2
ag2
ag3
ag4
ag4
ag4
aa(lp904
g3
ag6
ag6
ag6
ag6
ag6
ag6
ag6
ag6
ag4
ag4
ag4
ag4
ag4
aa(lp905
g9
ag9
ag9
ag9
ag9
ag4
ag4
aa(lp906
g9
ag30
ag30
ag4
aa(lp907
g14
ag2
ag2
ag6
ag6
ag6
ag6
ag6
ag6
ag4
ag4
ag4
ag4
ag4
ag4
ag15
aa(lp908
g9
ag9
ag9
ag9
ag9
ag30
ag3
ag4
aa(lp909
g46
ag30
ag30
ag4
aa(lp910
g9
ag9
ag9
ag3
ag3
ag6
ag6
ag4
ag4
ag4
ag4
ag4
ag4
ag4
ag4
ag4
ag4
ag15
ag15
ag15
ag15
aa(lp911
g9
ag22
ag22
ag2
ag2
ag3
ag6
ag6
ag6
ag6
ag4
aa(lp912
g9
ag4
ag4
ag4
ag4
ag9
ag9
ag9
ag15
aa(lp913
g9
ag4
ag4
ag9
aa(lp914
g2
ag2
ag2
ag2
ag2
ag6
ag4
ag4
aa(lp915
g22
ag22
ag2
ag2
ag2
ag3
ag4
ag4
aa(lp916
g22
ag22
ag22
ag22
ag22
ag12
ag22
ag4
aa(lp917
g9
ag9
ag3
ag6
ag6
ag4
ag4
ag4
ag15
ag15
aa(lp918
g14
ag14
ag14
ag2
ag2
ag4
ag4
ag4
ag6
aa(lp919
g14
ag6
ag4
aa(lp920
g46
ag30
ag4
aa(lp921
g9
ag30
ag30
ag30
ag30
ag30
ag30
ag4
ag4
ag4
aa(lp922
g4
ag4
aa(lp923
g9
ag9
ag9
ag9
ag9
ag9
ag9
ag9
ag9
ag12
ag30
ag4
ag4
ag4
ag4
ag4
ag15
ag15
aa(lp924
g9
ag9
ag9
ag9
ag3
ag3
ag6
ag6
ag4
ag4
ag4
ag4
ag4
ag4
ag6
ag6
aa(lp925
g9
ag9
ag9
ag9
ag9
ag4
ag4
aa(lp926
g46
ag14
ag14
ag14
ag4
ag4
aa(lp927
g6
ag6
ag6
ag6
ag4
ag4
ag15
aa(lp928
g12
ag12
ag12
ag4
ag4
ag4
aa(lp929
g22
ag22
ag22
ag22
ag22
ag22
ag22
ag22
ag22
ag10
ag4
aa(lp930
g30
ag30
ag30
ag6
ag6
ag4
ag4
ag4
ag4
ag4
aa(lp931
g46
ag10
ag10
ag6
aa(lp932
g14
ag14
ag14
ag14
ag4
aa(lp933
g30
ag30
ag30
ag30
ag30
ag4
ag4
aa(lp934
g46
ag12
ag12
ag12
ag4
ag4
aa(lp935
g14
ag14
ag14
ag14
ag14
ag4
ag4
ag4
ag4
aa(lp936
g46
ag22
ag22
ag22
ag10
ag6
ag6
ag4
ag4
ag4
ag4
ag4
aa(lp937
g46
ag12
aa(lp938
g10
ag10
ag10
ag10
ag2
ag2
ag2
ag3
ag4
ag4
ag6
ag6
ag6
ag6
aa(lp939
g9
ag9
ag9
ag3
ag4
aa(lp940
g9
ag9
ag9
ag4
aa(lp941
g3
ag6
ag6
ag6
ag6
ag6
ag6
ag4
ag4
ag15
ag15
aa(lp942
g9
ag9
ag9
ag9
ag9
ag4
aa(lp943
g9
ag11
ag11
ag11
ag11
ag11
ag3
ag4
ag4
ag4
ag15
aa(lp944
g9
ag9
ag9
ag9
ag9
ag11
ag12
ag52
ag4
ag15
aa(lp945
g9
ag9
ag9
ag9
ag9
ag9
ag3
ag4
ag4
aa(lp946
g3
ag3
ag6
ag4
ag4
ag4
ag4
ag4
aa(lp947
g9
ag9
ag9
ag9
ag9
ag9
ag30
ag30
ag30
ag30
ag30
ag30
ag30
ag2
ag12
ag12
ag4
ag4
ag4
ag4
ag4
ag4
ag4
aa(lp948
g9
ag9
ag9
ag9
ag9
ag9
ag9
ag9
ag2
ag4
ag4
ag4
aa(lp949
g10
ag10
ag10
ag4
ag4
ag6
ag6
ag6
aa(lp950
g22
ag4
aa(lp951
g9
ag9
ag9
ag9
ag9
ag2
ag4
ag4
aa(lp952
g9
ag30
ag30
ag3
ag3
ag6
ag6
ag6
ag4
ag4
ag4
ag4
ag4
ag4
ag4
ag4
ag4
ag15
ag15
ag15
aa(lp953
g9
ag9
ag9
ag9
ag9
ag30
ag3
ag3
ag6
ag4
ag4
ag4
ag4
ag15
ag15
aa(lp954
g3
ag4
ag4
ag4
ag6
ag6
ag6
aa(lp955
g4
ag4
ag15
aa(lp956
g6
ag6
ag6
ag6
ag6
ag6
ag6
ag6
ag4
ag4
ag4
aa(lp957
g6
ag6
ag6
ag6
ag6
ag6
ag6
ag4
ag4
ag15
aa(lp958
g12
ag12
ag3
ag4
ag4
ag4
aa(lp959
g9
ag9
ag9
ag9
ag9
ag30
ag4
ag4
ag4
ag4
ag4
ag6
ag15
ag15
aa(lp960
g22
ag22
ag3
ag6
ag4
ag4
aa(lp961
g9
ag9
ag9
ag9
ag9
ag9
ag3
ag4
ag4
aa(lp962
g3
ag6
ag6
ag4
ag4
ag4
ag4
aa(lp963
g22
ag4
ag4
aa(lp964
g3
ag6
ag6
ag6
ag4
aa(lp965
g9
ag9
ag9
ag9
ag9
ag9
ag3
ag4
aa(lp966
g46
ag30
ag4
aa(lp967
g9
ag10
ag10
ag3
ag6
ag6
ag4
ag4
ag15
aa(lp968
g9
ag9
ag3
ag6
ag6
ag6
ag6
ag6
ag6
ag4
ag4
ag6
aa(lp969
g9
ag9
ag11
ag11
ag11
ag6
ag4
ag4
ag4
ag4
ag6
ag15
ag15
aa(lp970
g9
ag3
ag6
ag6
ag4
ag4
ag4
ag4
ag15
aa(lp971
g9
ag9
ag9
ag10
ag4
ag6
ag6
aa(lp972
g6
ag4
ag4
ag4
ag4
ag4
ag4
ag4
ag4
ag4
aa(lp973
g9
ag12
ag12
ag12
ag12
ag12
ag3
ag4
ag4
ag4
ag4
ag4
ag15
ag15
aa(lp974
g10
ag10
ag2
ag2
ag2
ag10
ag6
ag4
ag4
ag4
aa(lp975
g10
ag10
ag12
ag6
ag6
ag6
ag6
ag4
ag4
aa(lp976
g14
ag14
ag14
ag6
ag4
ag4
ag4
aa(lp977
g11
ag11
ag11
ag4
ag4
aa(lp978
g12
ag12
ag12
ag3
ag6
ag6
ag6
ag4
ag4
ag4
ag4
ag4
ag4
aa(lp979
g9
ag9
ag9
ag9
ag9
ag3
ag4
aa(lp980
g9
ag9
ag9
ag9
ag9
ag4
aa(lp981
g10
ag3
ag6
ag6
ag6
ag4
ag4
aa(lp982
g2
ag2
ag2
ag2
ag2
ag2
ag3
ag3
ag6
ag4
ag4
ag4
aa(lp983
g10
ag10
ag4
ag4
ag4
aa(lp984
g9
ag9
ag30
ag30
ag30
ag4
ag4
ag4
ag4
aa(lp985
g9
ag3
ag4
aa(lp986
g22
ag22
ag22
ag22
ag4
ag4
aa(lp987
g9
ag9
ag9
ag9
ag9
ag4
ag4
aa(lp988
g9
ag10
ag10
ag30
ag3
ag6
ag6
ag6
ag6
ag6
ag6
ag4
ag4
ag4
ag4
ag4
ag15
ag15
aa(lp989
g22
ag22
ag22
ag22
ag3
ag6
ag6
ag4
ag4
ag4
ag4
ag4
aa(lp990
g9
ag9
ag2
ag3
ag6
ag6
ag4
ag4
ag4
ag15
ag15
ag15
aa(lp991
g9
ag9
ag22
ag6
ag6
ag6
ag6
ag4
ag4
ag4
ag4
ag4
ag4
ag4
ag4
ag4
ag4
ag4
ag4
ag6
ag6
aa(lp992
g9
ag2
ag2
ag2
ag2
ag3
ag3
ag6
ag4
ag4
ag4
ag4
ag6
ag15
aa(lp993
g30
ag30
ag14
ag10
ag6
ag6
ag4
aa(lp994
g9
ag9
ag14
ag14
ag3
ag4
ag4
aa(lp995
g10
ag10
ag10
ag10
ag3
ag4
ag4
ag4
ag6
ag6
ag6
ag6
aa(lp996
g46
ag30
aa(lp997
g6
ag6
ag6
ag6
ag6
ag6
ag4
aa(lp998
g30
ag30
ag4
aa(lp999
g46
ag22
ag22
ag22
ag11
ag11
ag11
ag6
ag4
ag4
aa(lp1000
g30
ag30
ag30
ag30
ag12
ag6
ag6
ag4
ag6
ag6
aa(lp1001
g46
ag14
ag4
aa(lp1002
g9
ag9
ag9
ag9
ag9
ag9
ag9
ag30
ag30
ag12
ag4
ag4
ag4
ag6
aa(lp1003
g3
ag6
ag6
ag6
ag6
ag6
ag4
ag4
aa(lp1004
g9
ag9
ag9
ag9
ag6
ag6
ag6
ag6
ag4
aa(lp1005
g22
ag6
ag6
ag4
ag4
ag4
aa(lp1006
g12
ag12
ag12
ag12
ag12
ag12
ag12
ag12
ag3
ag4
ag4
ag4
ag4
aa(lp1007
g2
ag3
ag4
ag4
ag4
ag4
ag4
ag4
ag4
aa(lp1008
g9
ag9
ag9
ag4
ag4
ag6
aa(lp1009
g9
ag9
ag9
ag9
ag9
ag12
ag4
ag6
aa(lp1010
g14
ag3
ag6
ag4
ag4
aa(lp1011
g6
ag6
ag6
ag6
ag4
ag4
aa(lp1012
g3
ag3
ag4
ag4
ag4
ag4
ag4
ag4
ag4
ag4
ag6
ag15
ag15
aa(lp1013
g6
ag4
aa(lp1014
g9
ag9
ag9
ag9
ag2
ag2
ag2
ag30
ag14
ag2
ag3
ag4
ag4
ag4
ag4
ag4
ag15
ag15
aa(lp1015
g9
ag9
ag30
ag30
ag30
ag30
ag30
ag6
ag6
ag4
ag4
ag4
aa(lp1016
g4
ag4
aa(lp1017
g9
ag9
ag9
ag9
ag10
ag3
ag4
ag4
aa(lp1018
g2
ag6
ag6
ag4
ag4
ag4
ag4
ag4
ag4
ag4
ag4
ag4
aa(lp1019
g6
ag4
ag4
aa(lp1020
g30
ag30
ag30
ag30
ag30
ag4
ag4
ag6
aa(lp1021
g22
ag14
ag14
ag6
ag4
ag4
ag15
aa(lp1022
g46
ag12
ag12
ag12
ag11
ag11
ag3
ag4
ag4
aa(lp1023
g10
ag10
ag10
ag4
ag4
ag4
aa(lp1024
g9
ag9
ag9
ag9
ag9
ag4
ag4
ag4
aa(lp1025
g46
ag10
ag3
ag3
ag4
ag4
ag4
ag4
ag4
aa(lp1026
g4
ag4
ag4
ag4
ag4
aa(lp1027
g14
ag6
ag4
ag4
ag4
ag4
ag4
ag4
ag15
ag15
aa(lp1028
g12
ag12
ag12
ag4
aa(lp1029
g9
ag4
ag4
ag15
ag15
aa(lp1030
g9
ag9
ag46
ag30
ag4
ag4
aa(lp1031
g30
ag4
ag4
ag4
ag4
ag6
aa(lp1032
g9
ag9
ag9
ag9
ag9
ag9
ag14
ag14
ag4
ag4
aa(lp1033
g9
ag9
ag9
ag9
ag9
ag9
ag12
ag3
ag4
ag6
aa(lp1034
g14
ag14
ag14
ag30
ag6
ag6
ag6
ag6
ag4
ag4
ag4
aa(lp1035
g9
ag3
ag6
ag4
ag4
ag4
ag4
ag4
ag4
ag4
ag4
ag4
aa(lp1036
g9
ag10
ag10
ag10
ag30
ag30
ag14
ag4
ag4
aa(lp1037
g9
ag9
ag9
ag9
ag9
ag4
ag4
aa(lp1038
g46
ag10
ag10
aa(lp1039
g10
ag10
ag10
ag10
ag10
ag30
ag6
ag4
ag4
aa(lp1040
g14
ag14
ag14
ag14
ag14
ag30
ag30
ag6
ag4
ag4
aa(lp1041
g30
ag30
ag30
ag4
aa(lp1042
g9
ag4
ag4
aa(lp1043
g6
ag4
aa(lp1044
g14
ag14
ag14
ag4
ag4
aa(lp1045
g10
ag22
ag6
ag6
ag4
aa(lp1046
g6
ag4
aa(lp1047
g9
ag9
ag9
ag9
ag9
ag9
ag9
ag9
ag9
ag9
ag4
ag4
aa(lp1048
g4
ag4
ag4
aa(lp1049
g22
ag22
ag22
ag22
ag10
ag4
aa(lp1050
g9
ag30
ag30
ag30
ag2
ag2
ag4
ag4
ag4
ag4
aa(lp1051
g46
ag30
ag4
aa(lp1052
g9
ag9
ag9
ag9
ag9
ag9
ag22
ag4
ag4
ag4
ag4
ag4
aa(lp1053
g4
ag4
ag4
ag4
ag6
ag6
ag6
ag6
aa(lp1054
g10
ag10
ag10
ag10
ag10
ag10
ag10
ag22
ag3
ag6
ag4
ag4
ag4
ag4
aa(lp1055
g12
ag3
ag4
aa(lp1056
g9
ag9
ag9
ag9
ag3
ag4
ag4
ag6
aa(lp1057
g11
ag11
ag11
ag4
aa(lp1058
g46
ag10
ag2
ag10
ag3
ag6
ag4
ag4
ag4
aa(lp1059
g9
ag9
ag9
ag9
ag9
ag9
ag10
ag3
ag6
ag6
ag4
ag4
aa(lp1060
g3
ag6
ag6
ag6
ag6
ag6
ag4
ag4
ag4
ag4
ag4
aa(lp1061
g3
ag6
ag6
ag4
ag4
ag4
ag4
ag4
ag4
aa(lp1062
g14
ag14
ag14
ag30
ag6
ag6
ag4
aa(lp1063
g22
ag3
ag6
ag4
aa(lp1064
g9
ag9
ag9
ag9
ag9
ag9
ag10
ag3
ag4
ag4
ag6
aa(lp1065
g2
ag11
ag11
ag10
ag6
ag6
ag6
ag6
ag6
ag6
ag4
ag4
ag4
ag6
aa(lp1066
g6
ag4
aa(lp1067
g11
ag3
ag6
ag6
ag6
ag6
ag6
ag6
ag4
aa(lp1068
g9
ag10
ag10
ag10
ag10
ag10
ag12
ag3
ag4
ag4
ag4
ag4
ag4
ag15
ag15
aa(lp1069
g9
ag9
ag9
ag4
ag6
ag6
ag6
aa(lp1070
g46
ag22
ag11
ag11
ag11
ag11
ag11
ag22
ag6
ag4
aa(lp1071
g9
ag22
ag22
ag10
ag10
ag4
ag4
ag4
aa(lp1072
g3
ag6
ag6
ag6
ag4
ag4
ag4
ag4
ag4
ag4
ag9
aa(lp1073
g9
ag22
ag22
ag2
ag2
ag2
ag3
ag3
ag6
ag6
ag6
ag4
ag4
ag4
ag4
ag4
ag4
ag15
aa(lp1074
g22
ag3
ag6
ag4
ag4
aa(lp1075
g9
ag9
ag9
ag9
ag6
ag6
ag6
ag4
ag4
ag4
ag4
aa(lp1076
g4
aa(lp1077
g12
ag12
ag12
ag12
ag12
ag12
ag30
ag4
ag6
aa(lp1078
g10
ag10
ag3
ag6
ag6
ag6
ag4
ag4
ag4
aa(lp1079
g9
ag9
ag9
ag9
ag9
ag9
ag2
ag4
ag4
ag4
aa(lp1080
g30
ag30
ag4
ag4
ag4
aa(lp1081
g9
ag2
ag2
ag2
ag2
ag2
ag2
ag3
ag6
ag6
ag4
ag4
ag4
ag15
ag15
aa(lp1082
g22
ag11
ag3
ag3
ag3
ag6
ag6
ag6
ag4
ag4
ag4
ag4
ag4
ag4
ag4
ag15
ag15
ag15
ag15
aa(lp1083
g46
ag10
ag10
aa(lp1084
g9
ag9
ag9
ag9
ag22
ag6
ag4
ag4
ag4
ag6
aa(lp1085
g46
ag12
ag12
ag12
ag12
ag3
aa(lp1086
g22
ag22
ag30
ag30
ag30
ag6
ag4
ag4
ag4
ag4
aa(lp1087
g9
ag9
ag9
ag9
ag3
ag4
aa(lp1088
g3
ag6
ag6
ag6
ag4
ag4
ag4
aa(lp1089
g10
ag4
ag4
aa(lp1090
g30
ag30
ag3
ag6
ag6
ag6
ag4
ag4
ag4
ag4
ag4
aa(lp1091
g9
ag9
ag9
ag9
ag9
ag30
ag4
aa(lp1092
g3
ag4
ag4
ag4
ag6
ag15
aa(lp1093
g46
ag30
ag30
ag30
ag30
ag30
ag30
aa(lp1094
g2
ag2
ag6
ag6
ag4
aa(lp1095
g9
ag9
ag30
ag30
ag30
ag30
ag4
aa(lp1096
g9
ag9
ag9
ag9
ag22
ag4
aa(lp1097
g9
ag9
ag9
ag9
ag9
ag9
ag30
ag3
ag4
ag4
ag6
ag6
ag15
aa(lp1098
g46
ag30
ag30
aa(lp1099
g30
ag30
ag3
ag4
ag4
aa(lp1100
g10
ag10
ag6
ag6
ag6
ag6
ag6
ag6
ag4
ag4
ag4
aa(lp1101
g11
ag11
ag11
ag11
ag11
ag11
ag3
ag4
ag4
ag4
aa(lp1102
g3
ag4
ag4
ag6
ag6
ag6
ag6
ag6
aa(lp1103
g6
ag4
aa(lp1104
g4
ag4
ag4
aa(lp1105
g30
ag30
ag30
ag30
ag4
ag4
ag6
aa(lp1106
g30
ag30
ag30
ag30
ag3
ag6
ag4
ag4
ag4
ag6
ag6
ag6
ag6
aa(lp1107
g11
ag11
ag11
ag11
ag3
ag4
ag4
ag4
aa(lp1108
g46
ag14
ag14
ag14
ag14
ag14
ag4
aa(lp1109
g46
ag10
ag10
ag10
ag10
ag12
ag12
ag3
ag3
ag4
ag4
aa(lp1110
g4
aa(lp1111
g14
ag14
ag10
ag10
ag3
ag3
ag4
ag4
ag6
aa(lp1112
g30
ag3
ag3
ag3
ag6
ag4
ag4
ag4
ag4
ag4
ag4
ag4
ag4
ag4
ag4
ag4
ag4
ag4
aa(lp1113
g9
ag9
ag9
ag9
ag2
ag6
ag6
ag6
ag6
ag6
ag6
ag4
ag4
ag4
ag4
ag4
ag4
ag4
ag4
ag6
ag15
aa(lp1114
g9
ag9
ag9
ag6
ag6
ag6
ag6
ag4
ag4
aa(lp1115
g12
ag12
ag4
ag4
ag4
aa(lp1116
g2
ag2
ag2
ag2
ag2
ag4
ag4
aa(lp1117
g2
ag2
ag2
ag2
ag2
ag4
ag4
aa(lp1118
g14
ag6
ag6
ag6
ag6
ag4
ag4
aa(lp1119
g46
ag14
ag14
ag14
ag14
ag14
ag3
ag6
ag6
ag6
ag6
ag6
ag6
ag4
ag4
ag4
aa(lp1120
g9
ag46
ag22
ag11
ag6
ag4
aa(lp1121
g4
aa(lp1122
g4
ag4
aa(lp1123
g11
ag11
ag11
ag4
ag4
aa(lp1124
g9
ag9
ag9
ag9
ag9
ag11
ag11
ag11
ag11
ag11
ag3
ag3
ag3
ag4
ag4
ag4
ag4
ag4
ag4
ag4
ag15
aa(lp1125
g9
ag9
ag9
ag9
ag9
ag11
ag4
ag6
aa(lp1126
g11
ag11
ag6
ag4
aa(lp1127
g14
ag14
ag6
ag6
ag4
ag4
ag4
aa(lp1128
g46
ag14
ag10
ag6
ag4
ag4
ag4
ag4
ag4
ag4
ag4
ag4
ag4
ag4
ag4
ag4
aa(lp1129
g14
ag14
ag14
ag14
ag3
ag6
ag4
ag4
aa(lp1130
g9
ag9
ag9
ag9
ag9
ag9
ag4
ag4
ag4
ag4
aa(lp1131
g10
ag6
ag6
ag6
ag6
ag4
ag4
aa(lp1132
g9
ag6
ag6
ag6
ag6
ag6
ag4
aa(lp1133
g46
aa(lp1134
g2
ag6
ag6
ag6
ag6
ag4
ag4
ag4
ag4
ag4
ag4
ag4
ag4
ag4
ag4
ag4
ag4
aa(lp1135
g4
ag6
ag6
ag6
aa(lp1136
g9
ag9
ag9
ag9
ag9
ag9
ag11
ag10
ag4
aa(lp1137
g9
ag4
ag4
aa(lp1138
g9
ag9
ag9
ag9
ag4
ag4
ag4
ag6
aa(lp1139
g22
ag22
ag22
ag22
ag22
ag4
ag4
ag4
aa(lp1140
g46
ag14
ag14
ag14
ag14
ag14
ag3
ag4
aa(lp1141
g9
ag10
ag10
ag10
ag3
ag3
ag3
ag6
ag6
ag6
ag6
ag4
ag4
ag4
ag4
ag4
ag4
ag4
ag4
ag6
ag6
ag15
ag15
ag15
aa(lp1142
g9
ag10
ag10
ag10
ag10
ag3
ag4
ag6
aa(lp1143
g10
ag10
ag30
ag30
ag3
ag4
ag4
ag4
aa(lp1144
g30
ag30
ag30
ag30
ag6
ag6
ag4
ag4
ag4
aa(lp1145
g46
ag30
ag30
ag3
ag6
ag4
ag4
ag4
ag4
ag4
ag4
ag4
ag4
aa(lp1146
g9
ag9
ag9
ag9
ag9
ag4
aa(lp1147
g46
ag30
ag30
ag3
ag4
aa(lp1148
g9
ag9
ag9
ag46
ag30
ag4
aa(lp1149
g9
ag9
ag10
ag10
ag14
ag10
ag10
ag10
ag3
ag6
ag6
ag4
ag4
ag4
ag4
ag4
ag4
ag4
ag6
ag6
ag15
ag15
ag15
aa(lp1150
g46
ag22
ag22
ag6
ag6
ag6
ag4
ag4
aa(lp1151
g9
ag9
ag9
ag9
ag4
ag4
aa(lp1152
g46
ag22
ag22
ag22
ag22
ag30
ag4
ag4
ag4
ag4
ag4
ag4
ag4
aa(lp1153
g9
ag9
ag9
ag9
ag3
ag4
ag4
aa(lp1154
g46
ag2
ag2
ag6
ag4
ag4
ag4
aa(lp1155
g30
ag30
ag4
aa(lp1156
g22
ag3
ag6
ag6
ag6
ag6
ag4
ag4
aa(lp1157
g46
ag12
ag4
ag4
aa(lp1158
g22
ag4
aa(lp1159
g9
ag9
ag9
ag9
ag9
ag9
ag9
ag9
ag9
ag11
ag4
ag4
ag15
ag15
aa(lp1160
g11
ag3
ag3
ag6
ag6
ag6
ag6
ag6
ag4
ag4
ag4
ag4
ag4
ag4
aa(lp1161
g6
ag6
ag4
ag6
ag6
ag6
aa(lp1162
g14
ag6
ag4
ag4
aa(lp1163
g9
ag9
ag9
ag9
ag4
ag4
aa(lp1164
g9
ag9
ag9
ag9
ag9
ag4
aa(lp1165
g9
ag9
ag9
ag9
ag9
ag4
aa(lp1166
g9
ag9
ag9
ag9
ag10
ag4
ag4
ag15
aa(lp1167
g46
ag3
ag4
ag4
aa(lp1168
g46
ag30
ag30
ag30
ag3
ag6
ag4
ag4
ag4
ag4
aa(lp1169
g12
ag12
ag3
ag4
ag4
ag4
ag6
aa(lp1170
g46
ag30
ag22
ag22
aa(lp1171
g3
ag6
ag6
ag6
ag6
ag4
ag4
ag4
ag4
ag4
ag4
ag4
ag15
aa(lp1172
g46
ag10
ag6
ag6
ag6
ag6
ag6
ag6
ag4
ag4
ag4
ag4
ag4
aa(lp1173
g46
ag30
ag30
ag3
ag4
aa(lp1174
g14
ag14
ag12
ag6
ag4
aa(lp1175
g4
aa(lp1176
g14
ag14
ag4
aa(lp1177
g9
ag9
ag9
ag9
ag4
ag4
ag4
aa(lp1178
g3
ag6
ag4
ag4
ag4
ag6
ag6
ag15
ag12
aa(lp1179
g9
ag22
ag22
ag22
ag4
ag15
ag15
ag15
aa(lp1180
g9
ag9
ag9
ag9
ag9
ag10
ag4
ag4
ag4
aa(lp1181
g3
ag4
ag4
ag4
ag6
ag6
ag6
aa(lp1182
g9
ag12
ag12
ag12
ag12
ag12
ag3
ag6
ag6
ag4
ag4
aa(lp1183
g3
ag6
ag6
ag6
ag6
ag6
ag4
ag4
ag4
ag4
ag4
ag4
aa(lp1184
g9
ag3
ag3
ag6
ag6
ag6
ag4
ag4
ag4
ag4
ag4
aa(lp1185
g3
ag3
ag6
ag6
ag6
ag6
ag4
ag4
ag4
ag4
aa(lp1186
g2
ag2
ag2
ag4
aa(lp1187
g9
ag9
ag9
ag4
aa(lp1188
g46
ag30
ag30
ag6
ag6
ag6
aa(lp1189
g10
ag30
ag30
ag30
ag30
ag30
ag30
ag6
ag4
ag4
aa(lp1190
g9
ag9
ag46
ag11
ag3
ag3
ag6
ag6
ag4
ag4
ag4
ag4
ag4
ag4
ag4
ag15
aa(lp1191
g22
ag4
ag4
aa(lp1192
g10
ag10
ag10
ag30
ag4
ag4
aa(lp1193
g4
aa(lp1194
g4
ag4
ag4
aa(lp1195
g9
ag9
ag9
ag9
ag2
ag2
ag4
ag4
ag4
ag6
aa(lp1196
g46
ag12
ag12
ag12
aa(lp1197
g4
ag4
aa(lp1198
g9
ag9
ag9
ag9
ag9
ag9
ag4
ag4
ag6
aa(lp1199
g4
ag4
ag4
ag4
aa(lp1200
g9
ag9
ag9
ag9
ag9
ag4
ag4
ag6
ag6
aa(lp1201
g6
ag6
ag6
ag6
ag6
ag4
ag4
aa(lp1202
g9
ag30
ag30
ag30
ag6
ag6
ag6
ag4
ag4
ag4
ag4
aa(lp1203
g9
ag4
ag4
ag4
ag4
ag4
ag4
aa(lp1204
g46
ag10
ag10
ag10
ag6
ag6
ag6
ag6
ag6
aa(lp1205
g22
ag11
ag11
ag11
ag11
ag30
ag4
aa(lp1206
g9
ag9
ag9
ag9
ag9
ag9
ag9
ag2
ag3
ag4
ag4
ag4
ag4
ag4
ag6
ag6
ag15
aa(lp1207
g9
ag9
ag3
ag3
ag6
ag4
ag4
ag4
ag4
ag4
ag4
ag6
ag15
ag15
ag15
aa(lp1208
g9
ag9
ag9
ag3
ag6
ag6
ag6
ag4
ag4
ag4
ag4
ag6
ag15
ag15
aa(lp1209
g9
ag9
ag9
ag9
ag9
ag2
ag4
ag4
aa(lp1210
g9
ag9
ag9
ag9
ag30
ag30
ag6
ag6
ag4
ag4
ag15
ag15
aa(lp1211
g10
ag10
ag10
ag12
ag12
ag12
ag12
ag6
ag4
aa(lp1212
g11
ag11
ag6
ag52
ag52
ag4
ag4
aa(lp1213
g11
ag11
ag11
ag11
ag3
ag4
ag4
ag4
ag4
ag4
ag15
aa(lp1214
g9
ag9
ag9
ag9
ag9
ag9
ag12
ag12
ag10
ag10
ag6
ag6
ag6
ag6
ag4
ag4
ag4
ag4
ag4
ag4
ag4
aa(lp1215
g12
ag12
ag4
ag4
aa(lp1216
g9
ag9
ag12
ag4
ag4
aa(lp1217
g10
ag10
ag3
ag4
ag4
ag4
aa(lp1218
g3
ag6
ag52
ag4
ag4
ag4
aa(lp1219
g46
ag6
ag4
aa(lp1220
g12
ag12
ag12
ag12
ag12
ag4
ag4
aa(lp1221
g46
ag22
ag22
ag4
aa(lp1222
g30
ag30
ag3
ag6
ag4
ag4
ag6
ag6
ag6
ag6
aa(lp1223
g46
ag30
ag30
ag6
ag6
ag6
ag6
ag6
ag6
ag4
aa(lp1224
g9
ag9
ag9
ag9
ag9
ag9
ag10
ag10
ag4
ag4
ag6
aa(lp1225
g9
ag9
ag9
ag9
ag12
ag4
aa(lp1226
g10
ag10
ag10
ag10
ag10
ag3
ag4
aa(lp1227
g9
ag9
ag10
ag10
ag10
ag10
ag10
ag6
ag4
ag4
ag4
ag4
ag6
ag15
ag15
aa(lp1228
g6
ag6
ag6
ag6
ag6
ag6
ag4
ag4
ag6
aa(lp1229
g10
ag10
ag10
ag3
ag6
ag6
ag4
ag4
ag4
ag4
ag4
aa(lp1230
g9
ag4
aa(lp1231
g10
ag10
ag4
ag4
ag4
aa(lp1232
g30
ag30
ag30
ag4
ag4
aa(lp1233
g9
ag9
ag9
ag6
ag4
ag4
ag4
aa(lp1234
g22
ag22
ag22
ag22
ag22
ag22
ag22
ag3
ag4
ag4
ag4
aa(lp1235
g10
ag3
ag3
ag3
ag4
ag4
ag4
ag15
ag15
aa(lp1236
g4
aa(lp1237
g9
ag9
ag9
ag9
ag9
ag9
ag9
ag9
ag9
ag4
ag4
ag4
aa(lp1238
g12
ag12
ag6
ag6
ag6
ag4
ag4
ag4
aa(lp1239
g6
ag6
ag4
ag6
ag6
aa(lp1240
g22
ag6
ag6
ag6
ag4
ag4
ag4
ag4
ag4
aa(lp1241
g4
ag4
ag15
aa(lp1242
g9
ag9
ag9
ag3
ag4
ag4
ag4
ag6
aa(lp1243
g30
ag30
ag4
ag4
aa(lp1244
g30
ag30
ag30
ag3
ag6
ag4
ag4
ag4
ag6
ag6
aa(lp1245
g4
ag4
aa(lp1246
g9
ag9
ag9
ag9
ag9
ag9
ag2
ag4
ag4
ag4
ag15
aa(lp1247
g6
ag4
aa(lp1248
g46
ag22
ag22
ag22
ag6
ag6
ag6
ag6
aa(lp1249
g46
ag12
ag12
ag3
ag6
ag6
ag6
aa(lp1250
g14
ag14
ag14
ag14
ag14
ag14
ag3
ag6
ag4
ag4
ag15
aa(lp1251
g12
ag12
ag12
ag4
ag4
ag6
aa(lp1252
g30
ag30
ag2
ag4
aa(lp1253
g3
ag4
ag4
ag4
aa(lp1254
g4
ag4
ag4
aa(lp1255
g9
ag9
ag9
ag3
ag3
ag6
ag6
ag4
ag4
ag4
ag4
ag4
ag4
ag4
ag4
aa(lp1256
g9
ag9
ag9
ag9
ag9
ag9
ag10
ag10
ag4
ag4
aa(lp1257
g9
ag9
ag9
ag9
ag9
ag30
ag3
ag4
aa(lp1258
g14
ag14
ag6
ag6
ag4
ag4
ag4
aa(lp1259
g3
ag3
ag6
ag6
ag6
ag4
aa(lp1260
g9
ag9
ag9
ag9
ag3
ag4
aa(lp1261
g46
aa(lp1262
g9
ag9
ag2
ag6
ag4
ag15
aa(lp1263
g30
ag30
ag30
ag30
ag30
ag30
ag3
ag6
ag4
ag4
ag4
aa(lp1264
g9
ag9
ag9
ag9
ag9
ag4
ag4
ag4
aa(lp1265
g14
ag14
ag14
ag14
ag14
ag3
ag4
aa(lp1266
g9
ag11
ag11
ag11
ag11
ag11
ag11
ag11
ag11
ag4
aa(lp1267
g9
ag9
ag9
ag9
ag9
ag9
ag9
ag9
ag30
ag30
ag30
ag30
ag6
ag4
ag4
ag4
ag4
ag4
ag4
ag15
ag15
aa(lp1268
g4
aa(lp1269
g10
ag6
ag6
ag6
ag4
ag4
ag4
ag4
ag6
aa(lp1270
g30
ag30
ag30
ag4
aa(lp1271
g9
ag9
ag9
ag9
ag9
ag9
ag4
ag6
aa(lp1272
g46
ag2
aa(lp1273
g46
ag10
ag10
ag4
aa(lp1274
g30
ag30
ag30
ag30
ag30
ag30
ag3
ag4
ag4
ag6
aa(lp1275
g4
aa(lp1276
g46
ag10
ag10
ag10
ag10
aa(lp1277
g46
ag30
ag3
ag6
ag4
ag6
ag6
aa(lp1278
g9
ag9
ag9
ag9
ag9
ag9
ag4
ag4
aa(lp1279
g46
ag2
ag2
ag2
ag2
ag6
ag6
ag6
ag4
ag4
ag4
aa(lp1280
g9
ag9
ag9
ag12
ag12
ag12
ag4
ag15
ag15
aa(lp1281
g3
ag3
ag3
ag6
ag4
ag4
ag4
ag4
ag4
aa(lp1282
g9
ag9
ag9
ag11
ag4
aa(lp1283
g12
ag4
ag4
aa(lp1284
g9
ag9
ag9
ag9
ag9
ag9
ag9
ag4
ag4
ag4
ag4
aa(lp1285
g30
ag3
ag3
ag6
ag6
ag6
ag6
ag6
ag6
ag6
ag4
aa(lp1286
g9
ag9
ag9
ag9
ag9
ag9
ag9
ag9
ag9
ag9
ag9
ag10
ag4
ag4
ag4
ag15
aa(lp1287
g46
ag30
ag30
ag12
ag2
ag6
aa(lp1288
g9
ag14
ag6
ag4
ag4
ag15
aa(lp1289
g9
ag9
ag9
ag9
ag22
ag14
ag4
ag4
aa(lp1290
g9
ag9
ag9
ag9
ag9
ag9
ag4
ag4
aa(lp1291
g9
ag9
ag9
ag9
ag4
ag4
ag4
ag4
ag4
ag4
ag4
ag4
aa(lp1292
g9
ag9
ag9
ag9
ag9
ag9
ag9
ag2
ag30
ag30
ag6
ag4
ag4
ag4
ag4
ag4
ag4
ag4
ag15
ag15
ag15
aa(lp1293
g30
ag30
ag30
ag30
ag3
ag4
aa(lp1294
g4
aa(lp1295
g46
ag30
ag30
ag30
ag4
ag4
aa(lp1296
g22
ag22
ag6
ag6
ag6
ag6
ag6
ag4
aa(lp1297
g9
ag9
ag9
ag9
ag3
ag4
ag4
ag4
ag4
aa(lp1298
g9
ag9
ag9
ag9
ag9
ag9
ag4
aa(lp1299
g14
ag30
ag30
ag30
ag3
ag3
ag3
ag6
ag4
ag4
ag4
ag6
ag6
ag6
aa(lp1300
g9
ag9
ag9
ag9
ag9
ag4
ag4
aa(lp1301
g9
ag9
ag9
ag4
aa(lp1302
g46
ag12
ag12
ag12
ag6
ag4
aa(lp1303
g6
ag6
ag6
ag6
ag6
ag6
ag4
aa(lp1304
g10
ag10
ag10
ag10
ag10
ag4
aa(lp1305
g2
ag2
ag3
ag3
ag6
ag6
ag6
ag6
ag4
ag4
ag4
ag4
ag4
ag4
ag4
ag15
aa(lp1306
g9
ag9
ag9
ag9
ag9
ag10
ag4
ag4
ag4
aa(lp1307
g46
ag2
ag2
ag2
ag10
ag6
ag4
aa(lp1308
g12
ag12
ag12
ag4
aa(lp1309
g46
ag30
ag30
ag3
ag4
aa(lp1310
g4
aa(lp1311
g12
ag12
ag12
ag3
ag4
ag4
ag4
aa(lp1312
g9
ag9
ag11
ag11
ag4
ag4
ag4
ag4
ag4
ag4
ag4
ag4
ag4
ag4
ag15
aa(lp1313
g46
ag11
ag11
ag11
ag3
ag6
ag6
ag6
ag4
ag4
ag4
aa(lp1314
g12
ag12
ag12
ag22
ag22
ag4
ag4
ag4
aa(lp1315
g3
ag3
ag4
ag4
ag6
ag6
ag6
ag6
ag15
ag15
aa(lp1316
g46
ag30
ag30
ag30
ag30
ag3
ag6
ag6
aa(lp1317
g10
ag3
ag3
ag3
ag6
ag6
ag6
ag52
ag4
ag15
ag15
aa(lp1318
g22
ag2
ag22
ag6
ag6
ag4
ag15
ag15
aa(lp1319
g14
ag14
ag14
ag14
ag14
ag52
ag4
ag4
ag4
ag4
aa(lp1320
g9
ag4
ag4
aa(lp1321
g9
ag9
ag9
ag9
ag9
ag9
ag9
ag12
ag10
ag2
ag3
ag4
ag4
ag4
ag4
ag4
ag15
ag15
aa(lp1322
g46
ag30
ag30
ag30
ag22
ag22
ag4
ag4
ag4
ag4
ag4
aa(lp1323
g14
ag14
ag14
ag14
ag14
ag14
ag4
aa(lp1324
g6
ag6
ag6
ag6
ag6
ag4
aa(lp1325
g46
ag14
ag3
ag6
ag6
ag6
ag6
aa(lp1326
g22
ag22
ag22
ag22
ag3
ag4
ag4
ag4
ag4
ag4
ag4
aa(lp1327
g3
ag4
ag4
ag4
ag4
aa(lp1328
g12
ag12
ag12
ag6
ag6
ag6
ag6
ag4
ag4
aa(lp1329
g22
ag3
ag6
ag6
ag6
ag4
ag15
aa(lp1330
g46
ag2
ag3
ag4
aa(lp1331
g46
ag30
ag30
ag30
ag30
ag4
ag4
ag4
ag4
ag4
aa(lp1332
g6
ag6
ag6
ag6
ag6
ag6
ag4
ag4
ag4
ag4
ag4
ag4
ag4
ag4
ag4
ag4
ag4
ag15
aa(lp1333
g9
ag9
ag9
ag30
ag30
ag30
ag3
ag6
ag4
ag4
ag4
ag4
ag4
ag15
aa(lp1334
g6
ag6
ag6
ag4
aa(lp1335
g9
ag9
ag9
ag9
ag11
ag3
ag6
ag4
ag4
ag4
ag4
ag4
ag4
ag4
ag4
ag4
ag4
ag4
ag15
ag15
ag15
aa(lp1336
g46
ag10
ag10
ag10
ag10
ag3
ag3
ag4
ag4
aa(lp1337
g46
ag6
ag3
ag3
ag6
ag6
ag6
ag6
aa(lp1338
g9
ag30
ag11
ag6
ag4
ag4
ag4
ag4
aa(lp1339
g46
ag12
ag3
ag6
ag4
ag4
aa(lp1340
g46
ag10
ag11
ag11
ag3
ag6
ag4
ag4
ag4
aa(lp1341
g3
ag3
ag3
ag4
ag4
aa(lp1342
g9
ag9
ag9
ag4
ag6
aa(lp1343
g9
ag9
ag9
ag9
ag9
ag9
ag9
ag15
ag15
ag12
ag12
ag3
ag4
aa(lp1344
g30
ag30
ag30
ag4
ag6
ag6
aa(lp1345
g14
ag6
ag4
aa(lp1346
g22
ag22
ag22
ag4
ag4
ag4
ag6
ag6
ag6
aa(lp1347
g12
ag12
ag12
ag12
ag4
ag4
aa(lp1348
g2
ag2
ag2
ag2
ag3
ag4
ag4
ag4
ag4
aa(lp1349
g9
ag9
ag9
ag9
ag9
ag30
ag10
ag10
ag4
ag4
ag4
ag4
ag4
aa(lp1350
g9
ag4
ag4
ag4
ag4
ag4
ag4
aa(lp1351
g46
ag14
ag14
ag14
ag14
ag6
ag6
ag6
ag4
ag4
aa(lp1352
g46
ag14
ag4
aa(lp1353
g9
ag9
ag9
ag10
ag4
ag6
aa(lp1354
g6
ag4
ag4
ag6
aa(lp1355
g22
ag22
ag22
ag11
ag22
ag2
ag2
ag22
ag6
ag4
ag4
ag4
ag15
aa(lp1356
g12
ag6
ag6
ag6
ag6
ag4
ag4
ag4
ag4
ag4
ag15
aa(lp1357
g9
ag9
ag9
ag9
ag9
ag9
ag4
ag4
ag4
aa(lp1358
g3
ag6
ag6
ag6
ag6
ag6
ag6
ag6
ag4
aa(lp1359
g9
ag9
ag9
ag9
ag3
ag4
ag4
aa(lp1360
g4
aa(lp1361
g9
ag9
ag9
ag9
ag9
ag12
ag6
ag6
ag6
ag6
ag6
ag4
ag4
ag4
ag4
ag4
ag4
ag4
aa(lp1362
g46
ag30
ag30
ag22
ag6
ag6
ag6
ag6
ag4
ag4
ag4
aa(lp1363
g30
ag3
ag6
ag4
ag4
ag4
ag6
aa(lp1364
g6
ag6
ag6
ag6
ag6
ag6
ag6
ag6
ag6
ag4
ag4
ag4
ag6
ag15
aa(lp1365
g4
aa(lp1366
g22
ag2
ag2
ag3
ag4
ag4
ag4
ag4
aa(lp1367
g4
aa(lp1368
g30
ag30
ag30
ag3
ag4
aa(lp1369
g9
ag9
ag9
ag9
ag9
ag4
ag4
ag6
aa(lp1370
g9
ag9
ag9
ag9
ag9
ag30
ag4
ag4
ag6
aa(lp1371
g9
ag9
ag9
ag9
ag4
ag4
ag4
aa(lp1372
g6
ag6
ag6
ag6
ag4
ag4
ag4
ag4
ag4
aa(lp1373
g10
ag10
ag10
ag4
aa(lp1374
g9
ag9
ag9
ag3
ag4
ag4
ag4
aa(lp1375
g10
ag10
ag10
ag10
ag14
ag14
ag3
ag6
ag4
aa(lp1376
g9
ag4
ag4
aa(lp1377
g10
ag10
ag10
ag10
ag4
ag6
ag6
aa(lp1378
g4
ag4
ag4
ag4
aa(lp1379
g4
aa(lp1380
g9
ag9
ag9
ag9
ag9
ag9
ag4
aa(lp1381
g30
ag30
ag30
ag4
ag4
aa(lp1382
g6
ag6
ag6
ag6
ag6
ag6
ag6
ag6
ag4
ag4
ag4
ag4
ag4
aa(lp1383
g4
ag4
ag6
aa(lp1384
g10
ag30
ag6
ag6
ag6
ag6
ag6
ag6
ag4
ag4
ag4
ag4
ag4
ag4
ag4
ag4
ag4
ag6
aa(lp1385
g3
ag6
ag6
ag6
ag6
ag6
ag4
ag4
ag4
ag15
ag15
ag15
aa(lp1386
g9
ag9
ag9
ag9
ag14
ag14
ag14
ag3
ag4
ag4
ag4
ag15
aa(lp1387
g9
ag9
ag9
ag9
ag9
ag9
ag22
ag22
ag4
ag4
ag4
ag15
aa(lp1388
g9
ag9
ag30
ag30
ag4
ag15
ag15
ag15
aa(lp1389
g46
ag14
ag3
ag6
ag6
ag6
ag6
ag4
aa(lp1390
g9
ag9
ag9
ag9
ag9
ag9
ag12
ag12
ag4
aa(lp1391
g30
ag4
ag6
ag6
ag6
aa(lp1392
g9
ag9
ag9
ag9
ag9
ag9
ag30
ag6
ag6
ag6
ag6
ag6
ag6
ag6
ag4
ag4
ag4
ag4
ag4
ag15
aa(lp1393
g46
ag14
ag3
ag6
ag6
ag6
aa(lp1394
g10
ag10
ag10
ag3
ag6
ag4
ag4
ag4
ag4
ag4
aa(lp1395
g9
ag9
ag9
ag9
ag4
ag4
aa(lp1396
g46
ag2
ag2
ag2
ag2
ag2
ag2
ag3
ag4
aa(lp1397
g9
ag9
ag9
ag9
ag9
ag9
ag9
ag4
ag4
ag4
ag4
aa(lp1398
g9
ag9
ag9
ag9
ag9
ag9
ag11
ag4
ag4
ag6
ag6
ag15
aa(lp1399
g9
ag9
ag9
ag46
ag30
ag30
ag30
ag6
ag6
ag4
ag4
ag4
ag4
aa(lp1400
g22
ag12
ag22
ag6
ag6
ag6
ag6
ag6
ag4
aa(lp1401
g9
ag9
ag9
ag9
ag2
ag3
ag3
ag4
ag4
ag4
ag4
ag4
ag15
aa(lp1402
g14
ag14
ag14
ag14
ag30
ag11
ag6
ag4
ag4
ag4
ag4
ag6
ag6
ag6
aa(lp1403
g46
ag14
ag12
ag12
ag6
ag6
ag4
ag4
ag6
ag6
ag6
ag15
aa(lp1404
g9
ag2
ag2
ag4
aa(lp1405
g10
ag10
ag6
ag6
ag6
ag6
ag4
ag4
ag4
ag4
aa(lp1406
g9
ag30
ag3
ag52
ag4
ag4
ag4
ag4
ag4
ag4
ag4
ag15
ag15
aa(lp1407
g9
ag9
ag9
ag9
ag9
ag9
ag9
ag4
ag4
ag6
aa(lp1408
g46
ag10
ag10
ag4
ag4
aa(lp1409
g10
ag10
ag10
ag10
ag10
ag2
ag10
ag6
ag6
ag6
ag4
ag4
ag4
aa(lp1410
g30
ag30
ag30
ag4
ag4
ag4
aa(lp1411
g11
ag11
ag11
ag11
ag11
ag10
ag6
ag4
ag4
aa(lp1412
g11
ag11
ag11
ag11
ag14
ag14
ag14
ag3
ag6
ag6
ag6
ag4
aa(lp1413
g9
ag9
ag9
ag9
ag3
ag4
ag4
ag6
aa(lp1414
g4
ag4
ag4
ag4
ag4
ag4
ag4
ag4
ag4
ag4
aa(lp1415
g46
ag14
ag14
ag14
ag22
ag22
aa(lp1416
g9
ag9
ag9
ag12
ag12
ag12
ag12
ag12
ag4
ag15
ag15
ag15
aa(lp1417
g46
ag6
ag4
aa(lp1418
g11
ag11
ag11
ag3
ag4
ag4
ag4
ag4
aa(lp1419
g2
ag6
ag4
ag4
aa(lp1420
g14
ag6
ag4
aa(lp1421
g6
ag6
ag6
ag4
ag4
ag4
aa(lp1422
g9
ag4
ag4
aa(lp1423
g9
ag9
ag9
ag46
ag30
ag4
ag4
aa(lp1424
g3
ag6
ag6
ag4
ag4
ag4
ag15
ag15
aa(lp1425
g22
ag22
ag22
ag12
ag12
ag10
ag10
ag4
aa(lp1426
g46
ag10
ag10
ag10
aa(lp1427
g9
ag9
ag2
ag4
ag4
aa(lp1428
g22
ag3
ag3
ag4
ag4
ag4
ag15
aa(lp1429
g9
ag30
ag30
ag30
ag30
ag3
ag6
ag6
ag6
ag6
ag6
ag6
ag4
ag4
ag4
ag4
ag6
ag15
aa(lp1430
g9
ag9
ag9
ag12
ag3
ag3
ag6
ag4
ag4
ag4
ag15
ag15
aa(lp1431
g3
ag6
ag6
ag6
ag4
ag4
ag4
ag4
aa(lp1432
g9
ag9
ag9
ag9
ag46
ag4
aa(lp1433
g46
ag10
ag10
ag10
ag10
ag6
ag4
ag4
ag4
ag4
ag4
aa(lp1434
g9
ag9
ag22
ag4
aa(lp1435
g4
aa(lp1436
g9
ag9
ag9
ag9
ag9
ag4
ag4
aa(lp1437
g14
ag14
ag14
ag6
ag6
ag6
ag4
ag4
aa(lp1438
g12
ag6
ag6
ag6
ag4
ag15
ag15
aa(lp1439
g9
ag4
ag4
ag4
ag4
aa(lp1440
g9
ag9
ag9
ag4
aa(lp1441
g30
ag30
ag30
ag30
ag6
ag4
aa(lp1442
g9
ag9
ag22
ag22
ag22
ag10
ag22
ag3
ag6
ag4
ag4
ag4
ag4
ag4
ag4
ag6
ag15
ag15
ag15
aa(lp1443
g9
ag14
ag30
ag14
ag3
ag3
ag6
ag4
ag4
ag4
ag4
aa(lp1444
g46
ag30
ag30
ag30
ag2
ag2
ag12
ag4
aa(lp1445
g6
ag6
ag4
aa(lp1446
g9
ag9
ag9
ag9
ag9
ag9
ag4
aa(lp1447
g9
ag9
ag9
ag2
ag4
aa(lp1448
g46
aa(lp1449
g46
ag10
ag3
ag6
ag4
ag4
aa(lp1450
g30
ag30
ag3
ag6
ag6
ag6
ag4
ag4
ag6
ag6
ag6
aa(lp1451
g10
ag12
ag12
ag12
ag10
ag10
ag10
ag10
ag4
ag4
ag4
aa(lp1452
g9
ag9
ag9
ag9
ag9
ag2
ag22
ag4
aa(lp1453
g22
ag22
ag22
ag22
ag3
ag52
ag52
ag4
ag4
ag4
aa(lp1454
g12
ag12
ag12
ag12
ag4
ag4
aa(lp1455
g10
ag3
ag3
ag3
ag52
ag52
ag4
ag4
ag15
ag15
aa(lp1456
g4
ag4
ag4
ag4
ag4
ag4
aa(lp1457
g9
ag9
ag22
ag22
ag22
ag22
ag22
ag4
ag4
ag15
aa(lp1458
g9
ag9
ag9
ag9
ag3
ag4
ag6
aa(lp1459
g9
ag9
ag9
ag9
ag9
ag4
ag4
ag4
ag4
aa(lp1460
g9
ag9
ag9
ag9
ag9
ag9
ag9
ag9
ag9
ag4
ag4
ag4
ag4
ag4
ag4
aa(lp1461
g46
ag10
ag6
ag6
ag6
ag4
aa(lp1462
g14
ag14
ag6
ag4
aa(lp1463
g10
ag10
ag10
ag6
ag6
ag4
ag4
aa(lp1464
g9
ag6
ag6
ag4
ag4
ag6
ag6
aa(lp1465
g9
ag9
ag9
ag9
ag9
ag3
ag4
aa(lp1466
g12
ag12
ag2
ag14
ag14
ag6
ag6
ag4
ag4
ag4
ag6
aa(lp1467
g3
ag6
ag6
ag4
ag4
ag4
ag4
ag4
ag4
ag4
ag4
ag4
ag4
ag15
aa(lp1468
g12
ag12
ag4
aa(lp1469
g22
ag3
ag6
ag4
ag15
aa(lp1470
g9
ag9
ag9
ag3
ag4
aa(lp1471
g9
ag9
ag9
ag4
aa(lp1472
g3
ag6
ag6
ag4
aa(lp1473
g3
ag6
ag4
ag6
ag6
ag6
ag6
ag6
aa(lp1474
g9
ag9
ag4
aa(lp1475
g6
ag6
ag4
aa(lp1476
g14
ag14
ag14
ag14
ag14
ag14
ag4
aa(lp1477
g9
ag9
ag9
ag4
ag6
aa(lp1478
g9
ag9
ag9
ag9
ag9
ag9
ag4
aa(lp1479
g12
ag12
ag12
ag4
aa(lp1480
g9
ag2
ag2
ag2
ag2
ag2
ag12
ag12
ag6
ag6
ag4
ag4
aa(lp1481
g46
ag30
ag30
ag30
ag3
ag4
aa(lp1482
g6
ag6
ag4
ag4
aa(lp1483
g9
ag9
ag6
ag4
ag4
ag4
ag4
ag4
aa(lp1484
g9
ag9
ag9
ag9
ag9
ag6
ag4
ag4
ag6
aa(lp1485
g9
ag9
ag9
ag9
ag12
ag4
ag4
aa(lp1486
g9
ag9
ag9
ag9
ag22
ag4
aa(lp1487
g3
ag6
ag6
ag6
ag6
ag6
ag4
ag6
aa(lp1488
g22
ag9
ag2
ag22
ag6
ag6
ag4
aa(lp1489
g11
ag3
ag4
ag4
ag4
ag4
ag4
ag15
ag15
aa(lp1490
g12
ag30
ag12
ag12
ag12
ag10
ag3
ag4
ag4
ag4
ag6
ag6
ag15
aa(lp1491
g9
ag9
ag9
ag9
ag9
ag9
ag9
ag9
ag4
ag4
ag4
ag6
ag6
aa(lp1492
g22
ag4
aa(lp1493
g9
ag9
ag9
ag9
ag9
ag4
aa(lp1494
g9
ag9
ag9
ag9
ag30
ag12
ag4
ag4
ag4
aa(lp1495
g12
ag12
ag12
ag12
ag3
ag4
aa(lp1496
g9
ag2
ag2
ag2
ag30
ag30
ag2
ag4
ag4
ag15
ag15
aa(lp1497
g9
ag9
ag9
ag9
ag9
ag9
ag3
ag4
ag4
aa(lp1498
g9
ag9
ag9
ag9
ag9
ag9
ag3
ag4
ag4
ag4
ag15
aa(lp1499
g14
ag6
ag6
ag6
ag6
ag6
ag6
ag4
ag4
ag4
aa(lp1500
g6
ag4
aa(lp1501
g30
ag3
ag3
ag3
ag4
ag4
ag4
ag4
ag15
aa(lp1502
g2
ag4
ag4
ag4
ag4
ag15
aa(lp1503
g9
ag9
ag9
ag9
ag3
ag4
aa(lp1504
g2
ag2
ag2
ag3
ag3
ag3
ag4
ag15
ag15
aa(lp1505
g9
ag30
ag12
ag12
ag12
ag12
ag6
ag4
ag4
ag4
ag4
ag15
aa(lp1506
g46
ag22
ag22
ag3
ag6
ag4
ag4
ag4
aa(lp1507
g46
ag3
ag6
ag6
ag6
ag6
ag6
ag4
aa(lp1508
g6
ag6
ag6
ag4
aa(lp1509
g9
ag9
ag9
ag9
ag30
ag4
ag4
aa(lp1510
g22
ag22
ag11
ag11
ag4
ag4
ag4
aa(lp1511
g9
ag9
ag4
aa(lp1512
g9
ag2
ag2
ag2
ag2
ag2
ag2
ag2
ag4
aa(lp1513
g46
ag12
ag30
ag12
ag12
ag6
ag6
ag4
ag4
aa(lp1514
g10
ag10
ag10
ag4
ag4
aa(lp1515
g9
ag9
ag9
ag9
ag9
ag9
ag9
ag4
aa(lp1516
g46
ag2
ag2
ag2
ag2
ag2
ag2
ag2
ag2
ag4
aa(lp1517
g9
ag9
ag9
ag9
ag9
ag9
ag14
ag14
ag14
ag3
ag4
ag4
ag4
aa(lp1518
g9
ag9
ag9
ag6
ag6
ag6
ag4
aa(lp1519
g46
ag30
ag30
ag3
ag6
ag6
ag4
ag4
aa(lp1520
g4
aa(lp1521
g2
ag30
ag6
ag4
ag4
ag4
ag15
aa(lp1522
g22
ag11
ag11
ag10
ag10
ag6
ag4
ag4
ag15
aa(lp1523
g9
ag9
ag9
ag9
ag9
ag9
ag3
ag4
ag4
aa(lp1524
g22
ag46
ag22
ag22
ag10
ag22
ag22
ag22
ag6
ag6
ag6
ag6
ag4
ag4
ag4
aa(lp1525
g9
ag9
ag9
ag4
ag4
ag4
ag4
ag4
aa(lp1526
g46
ag12
ag12
ag12
ag12
aa(lp1527
g22
ag2
ag2
ag3
ag6
ag6
ag4
ag4
ag6
aa(lp1528
g3
ag3
ag4
ag4
ag4
ag4
ag4
ag4
ag15
aa(lp1529
g30
ag30
ag30
ag30
ag30
ag30
ag30
ag30
ag30
ag30
ag4
ag6
ag6
aa(lp1530
g46
ag22
ag22
ag22
ag4
aa(lp1531
g3
ag4
ag6
aa(lp1532
g9
ag9
ag9
ag9
ag9
ag22
ag11
ag11
ag10
ag11
ag12
ag6
ag6
ag6
ag4
ag4
ag4
ag4
ag4
ag4
ag4
ag4
ag15
ag15
aa(lp1533
g6
ag6
ag6
ag6
ag6
ag6
ag4
ag4
ag4
ag4
ag4
aa(lp1534
g3
ag3
ag6
ag6
ag6
ag4
ag4
ag4
ag4
ag4
ag4
ag6
ag6
aa(lp1535
g6
ag6
ag6
ag4
aa(lp1536
g11
ag11
ag11
ag3
ag6
ag4
ag4
ag6
aa(lp1537
g46
ag30
ag30
ag30
ag30
ag30
ag6
ag4
aa(lp1538
g9
ag9
ag9
ag9
ag9
ag9
ag10
ag10
ag4
ag4
ag4
ag4
aa(lp1539
g46
ag14
ag14
ag14
ag2
ag30
ag6
ag6
ag6
ag4
ag4
ag4
aa(lp1540
g6
ag6
ag6
ag6
ag6
ag4
ag4
aa(lp1541
g10
ag10
ag3
ag4
ag4
ag4
ag4
ag4
ag6
aa(lp1542
g9
ag9
ag9
ag9
ag9
ag10
ag4
ag4
ag15
ag15
aa(lp1543
g3
ag4
ag4
aa(lp1544
g9
ag9
ag9
ag4
aa(lp1545
g46
ag10
ag10
ag10
ag22
ag6
aa(lp1546
g3
ag6
ag6
ag6
ag6
ag6
ag4
aa(lp1547
g4
ag4
ag6
ag6
ag6
ag6
aa(lp1548
g46
ag30
ag4
aa(lp1549
g12
ag3
ag4
ag15
ag15
aa(lp1550
g9
ag9
ag12
ag30
ag6
ag4
aa(lp1551
g9
ag9
ag9
ag30
ag3
ag4
ag4
aa(lp1552
g9
ag3
ag3
ag4
ag4
ag4
aa(lp1553
g9
ag3
ag3
ag6
ag6
ag4
ag4
ag4
ag4
ag4
ag4
ag4
ag4
ag4
ag4
ag4
aa(lp1554
g3
ag6
ag4
ag4
ag4
ag4
ag4
ag6
ag6
ag6
ag6
aa(lp1555
g30
ag6
ag4
aa(lp1556
g9
ag9
ag14
ag14
ag4
ag15
ag15
aa(lp1557
g22
ag22
ag22
ag14
ag10
ag10
ag6
ag6
ag4
ag4
ag4
ag15
aa(lp1558
g6
ag6
ag6
ag6
ag6
ag6
ag6
ag4
ag4
ag15
aa(lp1559
g30
ag30
ag30
ag3
ag3
ag3
ag6
ag6
ag4
ag4
ag4
aa(lp1560
g9
ag9
ag9
ag9
ag9
ag9
ag9
ag9
ag9
ag9
ag9
ag3
ag4
ag4
ag4
aa(lp1561
g9
ag9
ag9
ag9
ag9
ag3
ag4
aa(lp1562
g30
ag30
ag4
aa(lp1563
g3
ag6
ag6
ag6
ag6
ag6
ag4
aa(lp1564
g22
ag3
ag6
ag6
ag4
ag4
ag4
aa(lp1565
g9
ag9
ag4
ag6
aa(lp1566
g2
ag2
ag2
ag6
ag6
ag4
aa(lp1567
g2
ag2
ag6
ag4
ag4
ag4
aa(lp1568
g9
ag9
ag9
ag9
ag9
ag4
ag4
ag6
aa(lp1569
g46
ag10
ag10
ag14
ag14
aa(lp1570
g9
ag9
ag9
ag9
ag3
ag4
ag4
ag4
ag6
aa(lp1571
g46
ag6
ag6
ag6
ag6
ag6
ag6
aa(lp1572
g22
ag22
ag22
ag22
ag4
ag6
ag15
aa(lp1573
g9
ag9
ag30
ag12
ag12
ag12
ag3
ag6
ag52
ag52
ag4
ag4
ag15
ag15
aa(lp1574
g46
ag22
aa(lp1575
g3
ag3
ag6
ag6
ag4
ag4
ag4
ag4
ag4
ag4
ag4
ag15
aa(lp1576
g9
ag9
ag9
ag9
ag9
ag3
ag4
aa(lp1577
g9
ag14
ag12
ag6
ag6
ag6
ag6
ag6
ag6
ag4
ag4
ag4
ag4
ag4
ag4
aa(lp1578
g9
ag9
ag9
ag9
ag4
ag4
aa(lp1579
g9
ag9
ag9
ag9
ag4
aa(lp1580
g3
ag6
ag6
ag6
ag6
ag6
ag6
ag4
aa(lp1581
g30
ag30
ag3
ag6
ag6
ag6
ag6
ag6
ag6
ag6
ag4
ag4
ag4
aa(lp1582
g9
ag9
ag9
ag9
ag3
ag4
ag4
ag4
ag6
ag6
ag6
ag6
aa(lp1583
g9
ag9
ag9
ag9
ag4
ag4
aa(lp1584
g9
ag9
ag3
ag4
ag4
ag4
ag4
ag4
ag4
ag4
ag4
ag4
ag4
ag4
ag4
aa(lp1585
g14
ag14
ag4
aa(lp1586
g9
ag9
ag9
ag9
ag9
ag9
ag9
ag4
ag6
aa(lp1587
g9
ag9
ag4
aa(lp1588
g9
ag9
ag9
ag9
ag9
ag9
ag3
ag4
aa(lp1589
g9
ag3
ag3
ag6
ag6
ag6
ag6
ag4
ag4
ag4
ag4
ag4
ag4
aa(lp1590
g12
ag12
ag12
ag12
ag6
ag4
ag4
ag4
ag4
aa(lp1591
g4
aa(lp1592
g3
ag6
ag6
ag6
ag4
ag4
ag6
ag6
ag6
ag6
ag6
aa(lp1593
g12
ag12
ag12
ag4
aa(lp1594
g3
ag6
ag6
ag4
ag4
ag6
ag6
ag6
aa(lp1595
g30
ag3
ag4
ag4
ag4
ag4
ag4
aa(lp1596
g3
ag6
ag6
ag6
ag4
ag4
ag4
ag4
ag4
ag4
ag4
aa(lp1597
g9
ag9
ag9
ag9
ag9
ag9
ag4
aa(lp1598
g30
ag6
aS'Z'
p1599
ag6
ag6
ag6
ag6
ag6
ag6
ag6
ag4
ag4
ag4
ag4
aa(lp1600
g10
ag11
ag11
ag11
ag11
ag4
ag4
aa(lp1601
g4
aa(lp1602
g9
ag9
ag30
ag4
ag4
aa(lp1603
g9
ag9
ag9
ag9
ag4
aa(lp1604
g22
ag22
ag22
ag22
ag3
ag3
ag6
ag6
ag4
ag4
ag4
ag4
aa(lp1605
g3
ag3
ag6
ag6
ag6
ag6
ag6
ag6
ag6
ag6
ag6
ag4
ag4
aa(lp1606
g9
ag9
ag9
ag9
ag9
ag4
ag4
ag4
ag6
aa(lp1607
g30
ag14
ag6
ag6
ag6
ag6
ag6
ag6
ag6
ag6
ag4
aa(lp1608
g6
ag6
ag6
ag6
ag4
aa(lp1609
g9
ag9
ag6
ag4
ag6
aa(lp1610
g6
ag4
aa(lp1611
g30
ag6
ag4
aa(lp1612
g4
aa(lp1613
g6
ag6
ag4
aa(lp1614
g9
ag9
ag9
ag9
ag9
ag3
ag4
aa(lp1615
g46
ag14
ag14
ag14
ag4
ag4
aa(lp1616
g46
ag3
ag6
ag6
ag6
ag6
ag6
ag6
ag6
ag6
ag6
ag4
ag4
ag4
ag4
ag4
aa(lp1617
g9
ag9
ag9
ag6
ag6
ag6
ag4
ag4
ag4
aa(lp1618
g4
ag6
ag6
aa(lp1619
g9
ag4
aa(lp1620
g9
ag4
ag4
ag4
ag4
aa.